Archive member included because of file (symbol)

/opt/RidgeRun/arm-eabi-uclibc/lib/gcc/arm-linux-uclibcgnueabi/4.1.1/../../../../arm-linux-uclibcgnueabi/lib/libm.a(s_atan.o)
                              nsf.o (atan)
/opt/RidgeRun/arm-eabi-uclibc/lib/gcc/arm-linux-uclibcgnueabi/4.1.1/../../../../arm-linux-uclibcgnueabi/lib/libm.a(s_cos.o)
                              nsf.o (cos)
/opt/RidgeRun/arm-eabi-uclibc/lib/gcc/arm-linux-uclibcgnueabi/4.1.1/../../../../arm-linux-uclibcgnueabi/lib/libm.a(s_fabs.o)
                              /opt/RidgeRun/arm-eabi-uclibc/lib/gcc/arm-linux-uclibcgnueabi/4.1.1/../../../../arm-linux-uclibcgnueabi/lib/libm.a(s_atan.o) (__GI_fabs)
/opt/RidgeRun/arm-eabi-uclibc/lib/gcc/arm-linux-uclibcgnueabi/4.1.1/../../../../arm-linux-uclibcgnueabi/lib/libm.a(s_sin.o)
                              nsf.o (sin)
/opt/RidgeRun/arm-eabi-uclibc/lib/gcc/arm-linux-uclibcgnueabi/4.1.1/../../../../arm-linux-uclibcgnueabi/lib/libm.a(w_log.o)
                              mappers/emu2413.o (log)
/opt/RidgeRun/arm-eabi-uclibc/lib/gcc/arm-linux-uclibcgnueabi/4.1.1/../../../../arm-linux-uclibcgnueabi/lib/libm.a(w_log10.o)
                              mappers/emu2413.o (log10)
/opt/RidgeRun/arm-eabi-uclibc/lib/gcc/arm-linux-uclibcgnueabi/4.1.1/../../../../arm-linux-uclibcgnueabi/lib/libm.a(w_pow.o)
                              mappers/emu2413.o (pow)
/opt/RidgeRun/arm-eabi-uclibc/lib/gcc/arm-linux-uclibcgnueabi/4.1.1/../../../../arm-linux-uclibcgnueabi/lib/libm.a(w_sqrt.o)
                              nsf.o (sqrt)
/opt/RidgeRun/arm-eabi-uclibc/lib/gcc/arm-linux-uclibcgnueabi/4.1.1/../../../../arm-linux-uclibcgnueabi/lib/libm.a(e_log.o)
                              /opt/RidgeRun/arm-eabi-uclibc/lib/gcc/arm-linux-uclibcgnueabi/4.1.1/../../../../arm-linux-uclibcgnueabi/lib/libm.a(w_log.o) (__ieee754_log)
/opt/RidgeRun/arm-eabi-uclibc/lib/gcc/arm-linux-uclibcgnueabi/4.1.1/../../../../arm-linux-uclibcgnueabi/lib/libm.a(e_log10.o)
                              /opt/RidgeRun/arm-eabi-uclibc/lib/gcc/arm-linux-uclibcgnueabi/4.1.1/../../../../arm-linux-uclibcgnueabi/lib/libm.a(w_log10.o) (__ieee754_log10)
/opt/RidgeRun/arm-eabi-uclibc/lib/gcc/arm-linux-uclibcgnueabi/4.1.1/../../../../arm-linux-uclibcgnueabi/lib/libm.a(e_pow.o)
                              /opt/RidgeRun/arm-eabi-uclibc/lib/gcc/arm-linux-uclibcgnueabi/4.1.1/../../../../arm-linux-uclibcgnueabi/lib/libm.a(w_pow.o) (__ieee754_pow)
/opt/RidgeRun/arm-eabi-uclibc/lib/gcc/arm-linux-uclibcgnueabi/4.1.1/../../../../arm-linux-uclibcgnueabi/lib/libm.a(e_rem_pio2.o)
                              /opt/RidgeRun/arm-eabi-uclibc/lib/gcc/arm-linux-uclibcgnueabi/4.1.1/../../../../arm-linux-uclibcgnueabi/lib/libm.a(s_cos.o) (__ieee754_rem_pio2)
/opt/RidgeRun/arm-eabi-uclibc/lib/gcc/arm-linux-uclibcgnueabi/4.1.1/../../../../arm-linux-uclibcgnueabi/lib/libm.a(e_sqrt.o)
                              /opt/RidgeRun/arm-eabi-uclibc/lib/gcc/arm-linux-uclibcgnueabi/4.1.1/../../../../arm-linux-uclibcgnueabi/lib/libm.a(w_sqrt.o) (__ieee754_sqrt)
/opt/RidgeRun/arm-eabi-uclibc/lib/gcc/arm-linux-uclibcgnueabi/4.1.1/../../../../arm-linux-uclibcgnueabi/lib/libm.a(k_cos.o)
                              /opt/RidgeRun/arm-eabi-uclibc/lib/gcc/arm-linux-uclibcgnueabi/4.1.1/../../../../arm-linux-uclibcgnueabi/lib/libm.a(s_cos.o) (__kernel_cos)
/opt/RidgeRun/arm-eabi-uclibc/lib/gcc/arm-linux-uclibcgnueabi/4.1.1/../../../../arm-linux-uclibcgnueabi/lib/libm.a(k_rem_pio2.o)
                              /opt/RidgeRun/arm-eabi-uclibc/lib/gcc/arm-linux-uclibcgnueabi/4.1.1/../../../../arm-linux-uclibcgnueabi/lib/libm.a(e_rem_pio2.o) (__kernel_rem_pio2)
/opt/RidgeRun/arm-eabi-uclibc/lib/gcc/arm-linux-uclibcgnueabi/4.1.1/../../../../arm-linux-uclibcgnueabi/lib/libm.a(k_sin.o)
                              /opt/RidgeRun/arm-eabi-uclibc/lib/gcc/arm-linux-uclibcgnueabi/4.1.1/../../../../arm-linux-uclibcgnueabi/lib/libm.a(s_cos.o) (__kernel_sin)
/opt/RidgeRun/arm-eabi-uclibc/lib/gcc/arm-linux-uclibcgnueabi/4.1.1/../../../../arm-linux-uclibcgnueabi/lib/libm.a(s_floor.o)
                              /opt/RidgeRun/arm-eabi-uclibc/lib/gcc/arm-linux-uclibcgnueabi/4.1.1/../../../../arm-linux-uclibcgnueabi/lib/libm.a(k_rem_pio2.o) (__GI_floor)
/opt/RidgeRun/arm-eabi-uclibc/lib/gcc/arm-linux-uclibcgnueabi/4.1.1/../../../../arm-linux-uclibcgnueabi/lib/libm.a(s_scalbn.o)
                              /opt/RidgeRun/arm-eabi-uclibc/lib/gcc/arm-linux-uclibcgnueabi/4.1.1/../../../../arm-linux-uclibcgnueabi/lib/libm.a(e_pow.o) (__GI_scalbn)
/opt/RidgeRun/arm-eabi-uclibc/lib/gcc/arm-linux-uclibcgnueabi/4.1.1/../../../../arm-linux-uclibcgnueabi/lib/libm.a(s_copysign.o)
                              /opt/RidgeRun/arm-eabi-uclibc/lib/gcc/arm-linux-uclibcgnueabi/4.1.1/../../../../arm-linux-uclibcgnueabi/lib/libm.a(s_scalbn.o) (__GI_copysign)
/home/joe/work/opendidj/rootfs//usr/lib/libz.a(compress.o)
                              video.o (compress)
/home/joe/work/opendidj/rootfs//usr/lib/libz.a(crc32.o)
                              video.o (crc32)
/home/joe/work/opendidj/rootfs//usr/lib/libz.a(deflate.o)
                              /home/joe/work/opendidj/rootfs//usr/lib/libz.a(compress.o) (deflateEnd)
/home/joe/work/opendidj/rootfs//usr/lib/libz.a(trees.o)
                              /home/joe/work/opendidj/rootfs//usr/lib/libz.a(deflate.o) (_tr_init)
/home/joe/work/opendidj/rootfs//usr/lib/libz.a(zutil.o)
                              /home/joe/work/opendidj/rootfs//usr/lib/libz.a(deflate.o) (z_errmsg)
/home/joe/work/opendidj/rootfs//usr/lib/libz.a(inflate.o)
                              zlib/unzip.o (inflateEnd)
/home/joe/work/opendidj/rootfs//usr/lib/libz.a(inftrees.o)
                              /home/joe/work/opendidj/rootfs//usr/lib/libz.a(inflate.o) (inflate_table)
/home/joe/work/opendidj/rootfs//usr/lib/libz.a(inffast.o)
                              /home/joe/work/opendidj/rootfs//usr/lib/libz.a(inflate.o) (inflate_fast)
/home/joe/work/opendidj/rootfs//usr/lib/libz.a(adler32.o)
                              /home/joe/work/opendidj/rootfs//usr/lib/libz.a(deflate.o) (adler32)
/home/joe/work/opendidj/rootfs//usr/lib/libpng.a(libpng12_la-png.o)
                              drivers/LF1000/readpng.o (png_init_io)
/home/joe/work/opendidj/rootfs//usr/lib/libpng.a(libpng12_la-pngget.o)
                              drivers/LF1000/readpng.o (png_get_rows)
/home/joe/work/opendidj/rootfs//usr/lib/libpng.a(libpng12_la-pngread.o)
                              drivers/LF1000/readpng.o (png_destroy_read_struct)
/home/joe/work/opendidj/rootfs//usr/lib/libpng.a(libpng12_la-pngrio.o)
                              /home/joe/work/opendidj/rootfs//usr/lib/libpng.a(libpng12_la-pngread.o) (png_set_read_fn)
/home/joe/work/opendidj/rootfs//usr/lib/libpng.a(libpng12_la-pngrtran.o)
                              /home/joe/work/opendidj/rootfs//usr/lib/libpng.a(libpng12_la-pngread.o) (png_set_strip_16)
/home/joe/work/opendidj/rootfs//usr/lib/libpng.a(libpng12_la-pngmem.o)
                              /home/joe/work/opendidj/rootfs//usr/lib/libpng.a(libpng12_la-pngread.o) (png_set_mem_fn)
/home/joe/work/opendidj/rootfs//usr/lib/libpng.a(libpng12_la-pngerror.o)
                              /home/joe/work/opendidj/rootfs//usr/lib/libpng.a(libpng12_la-pngread.o) (png_set_error_fn)
/home/joe/work/opendidj/rootfs//usr/lib/libpng.a(libpng12_la-pngrutil.o)
                              /home/joe/work/opendidj/rootfs//usr/lib/libpng.a(libpng12_la-pngread.o) (png_get_uint_31)
/home/joe/work/opendidj/rootfs//usr/lib/libpng.a(libpng12_la-pngtrans.o)
                              /home/joe/work/opendidj/rootfs//usr/lib/libpng.a(libpng12_la-pngread.o) (png_set_bgr)
/home/joe/work/opendidj/rootfs//usr/lib/libpng.a(libpng12_la-pngset.o)
                              /home/joe/work/opendidj/rootfs//usr/lib/libpng.a(libpng12_la-pngrutil.o) (png_set_oFFs)
/opt/RidgeRun/arm-eabi-uclibc/lib/gcc/arm-linux-uclibcgnueabi/4.1.1/libgcc.a(_udivsi3.o)
                              sound.o (__aeabi_uidiv)
/opt/RidgeRun/arm-eabi-uclibc/lib/gcc/arm-linux-uclibcgnueabi/4.1.1/libgcc.a(_divsi3.o)
                              nsf.o (__aeabi_idiv)
/opt/RidgeRun/arm-eabi-uclibc/lib/gcc/arm-linux-uclibcgnueabi/4.1.1/libgcc.a(_addsubdf3.o)
                              nsf.o (__aeabi_dsub)
/opt/RidgeRun/arm-eabi-uclibc/lib/gcc/arm-linux-uclibcgnueabi/4.1.1/libgcc.a(_muldivdf3.o)
                              nsf.o (__aeabi_dmul)
/opt/RidgeRun/arm-eabi-uclibc/lib/gcc/arm-linux-uclibcgnueabi/4.1.1/libgcc.a(_cmpdf2.o)
                              mappers/emu2413.o (__aeabi_dcmpeq)
/opt/RidgeRun/arm-eabi-uclibc/lib/gcc/arm-linux-uclibcgnueabi/4.1.1/libgcc.a(_fixdfsi.o)
                              sound.o (__aeabi_d2iz)
/opt/RidgeRun/arm-eabi-uclibc/lib/gcc/arm-linux-uclibcgnueabi/4.1.1/libgcc.a(_fixunsdfsi.o)
                              sound.o (__aeabi_d2uiz)
/opt/RidgeRun/arm-eabi-uclibc/lib/gcc/arm-linux-uclibcgnueabi/4.1.1/libgcc.a(_addsubsf3.o)
                              drivers/LF1000/minimal.o (__aeabi_i2f)
/opt/RidgeRun/arm-eabi-uclibc/lib/gcc/arm-linux-uclibcgnueabi/4.1.1/libgcc.a(_muldivsf3.o)
                              drivers/LF1000/minimal.o (__aeabi_fmul)
/opt/RidgeRun/arm-eabi-uclibc/lib/gcc/arm-linux-uclibcgnueabi/4.1.1/libgcc.a(_aeabi_ldivmod.o)
                              fds.o (__aeabi_ldivmod)
/opt/RidgeRun/arm-eabi-uclibc/lib/gcc/arm-linux-uclibcgnueabi/4.1.1/libgcc.a(_aeabi_uldivmod.o)
                              sound.o (__aeabi_uldivmod)
/opt/RidgeRun/arm-eabi-uclibc/lib/gcc/arm-linux-uclibcgnueabi/4.1.1/libgcc.a(_dvmd_lnx.o)
                              /opt/RidgeRun/arm-eabi-uclibc/lib/gcc/arm-linux-uclibcgnueabi/4.1.1/libgcc.a(_udivsi3.o) (__div0)
/opt/RidgeRun/arm-eabi-uclibc/lib/gcc/arm-linux-uclibcgnueabi/4.1.1/libgcc.a(bpabi.o)
                              /opt/RidgeRun/arm-eabi-uclibc/lib/gcc/arm-linux-uclibcgnueabi/4.1.1/libgcc.a(_aeabi_uldivmod.o) (__gnu_uldivmod_helper)
/opt/RidgeRun/arm-eabi-uclibc/lib/gcc/arm-linux-uclibcgnueabi/4.1.1/libgcc.a(_divdi3.o)
                              /opt/RidgeRun/arm-eabi-uclibc/lib/gcc/arm-linux-uclibcgnueabi/4.1.1/libgcc.a(bpabi.o) (__divdi3)
/opt/RidgeRun/arm-eabi-uclibc/lib/gcc/arm-linux-uclibcgnueabi/4.1.1/libgcc.a(_udivdi3.o)
                              /opt/RidgeRun/arm-eabi-uclibc/lib/gcc/arm-linux-uclibcgnueabi/4.1.1/libgcc.a(bpabi.o) (__udivdi3)
/opt/RidgeRun/arm-eabi-uclibc/lib/gcc/arm-linux-uclibcgnueabi/4.1.1/libgcc.a(_clz.o)
                              /opt/RidgeRun/arm-eabi-uclibc/lib/gcc/arm-linux-uclibcgnueabi/4.1.1/libgcc.a(_divdi3.o) (__clz_tab)
/opt/RidgeRun/arm-eabi-uclibc/lib/gcc/arm-linux-uclibcgnueabi/4.1.1/libgcc_eh.a(unwind-arm.o)
                              /opt/RidgeRun/arm-eabi-uclibc/lib/gcc/arm-linux-uclibcgnueabi/4.1.1/../../../../arm-linux-uclibcgnueabi/lib/libm.a(s_atan.o) (__aeabi_unwind_cpp_pr0)
/opt/RidgeRun/arm-eabi-uclibc/lib/gcc/arm-linux-uclibcgnueabi/4.1.1/libgcc_eh.a(libunwind.o)
                              /opt/RidgeRun/arm-eabi-uclibc/lib/gcc/arm-linux-uclibcgnueabi/4.1.1/libgcc_eh.a(unwind-arm.o) (restore_core_regs)
/opt/RidgeRun/arm-eabi-uclibc/lib/gcc/arm-linux-uclibcgnueabi/4.1.1/libgcc_eh.a(pr-support.o)
                              /opt/RidgeRun/arm-eabi-uclibc/lib/gcc/arm-linux-uclibcgnueabi/4.1.1/libgcc_eh.a(unwind-arm.o) (__gnu_unwind_execute)
/opt/RidgeRun/arm-eabi-uclibc/lib/gcc/arm-linux-uclibcgnueabi/4.1.1/../../../../arm-linux-uclibcgnueabi/lib/libc.a(raise.o)
                              /opt/RidgeRun/arm-eabi-uclibc/lib/gcc/arm-linux-uclibcgnueabi/4.1.1/libgcc.a(_dvmd_lnx.o) (raise)
/opt/RidgeRun/arm-eabi-uclibc/lib/gcc/arm-linux-uclibcgnueabi/4.1.1/../../../../arm-linux-uclibcgnueabi/lib/libc.a(bsd-_setjmp.o)
                              /home/joe/work/opendidj/rootfs//usr/lib/libpng.a(libpng12_la-pngread.o) (_setjmp)
/opt/RidgeRun/arm-eabi-uclibc/lib/gcc/arm-linux-uclibcgnueabi/4.1.1/../../../../arm-linux-uclibcgnueabi/lib/libc.a(libc-aeabi_read_tp.o)
                              drivers/LF1000/minimal.o (__aeabi_read_tp)
/opt/RidgeRun/arm-eabi-uclibc/lib/gcc/arm-linux-uclibcgnueabi/4.1.1/../../../../arm-linux-uclibcgnueabi/lib/libc.a(__syscall_fcntl.o)
                              drivers/LF1000/usbjoy.o (fcntl)
/opt/RidgeRun/arm-eabi-uclibc/lib/gcc/arm-linux-uclibcgnueabi/4.1.1/../../../../arm-linux-uclibcgnueabi/lib/libc.a(__syscall_fcntl64.o)
                              /opt/RidgeRun/arm-eabi-uclibc/lib/gcc/arm-linux-uclibcgnueabi/4.1.1/../../../../arm-linux-uclibcgnueabi/lib/libc.a(__syscall_fcntl.o) (__GI___libc_fcntl64)
/opt/RidgeRun/arm-eabi-uclibc/lib/gcc/arm-linux-uclibcgnueabi/4.1.1/../../../../arm-linux-uclibcgnueabi/lib/libc.a(access.o)
                              movie.o (access)
/opt/RidgeRun/arm-eabi-uclibc/lib/gcc/arm-linux-uclibcgnueabi/4.1.1/../../../../arm-linux-uclibcgnueabi/lib/libc.a(chdir.o)
                              drivers/LF1000/minimal.o (chdir)
/opt/RidgeRun/arm-eabi-uclibc/lib/gcc/arm-linux-uclibcgnueabi/4.1.1/../../../../arm-linux-uclibcgnueabi/lib/libc.a(close.o)
                              drivers/LF1000/minimal.o (close)
/opt/RidgeRun/arm-eabi-uclibc/lib/gcc/arm-linux-uclibcgnueabi/4.1.1/../../../../arm-linux-uclibcgnueabi/lib/libc.a(getcwd.o)
                              drivers/LF1000/menu.o (getcwd)
/opt/RidgeRun/arm-eabi-uclibc/lib/gcc/arm-linux-uclibcgnueabi/4.1.1/../../../../arm-linux-uclibcgnueabi/lib/libc.a(getpagesize.o)
                              /opt/RidgeRun/arm-eabi-uclibc/lib/gcc/arm-linux-uclibcgnueabi/4.1.1/../../../../arm-linux-uclibcgnueabi/lib/libc.a(getcwd.o) (__GI_getpagesize)
/opt/RidgeRun/arm-eabi-uclibc/lib/gcc/arm-linux-uclibcgnueabi/4.1.1/../../../../arm-linux-uclibcgnueabi/lib/libc.a(gettimeofday.o)
                              drivers/LF1000/throttle.o (gettimeofday)
/opt/RidgeRun/arm-eabi-uclibc/lib/gcc/arm-linux-uclibcgnueabi/4.1.1/../../../../arm-linux-uclibcgnueabi/lib/libc.a(ioctl.o)
                              drivers/LF1000/minimal.o (ioctl)
/opt/RidgeRun/arm-eabi-uclibc/lib/gcc/arm-linux-uclibcgnueabi/4.1.1/../../../../arm-linux-uclibcgnueabi/lib/libc.a(longjmp.o)
                              /home/joe/work/opendidj/rootfs//usr/lib/libpng.a(libpng12_la-pngerror.o) (longjmp)
/opt/RidgeRun/arm-eabi-uclibc/lib/gcc/arm-linux-uclibcgnueabi/4.1.1/../../../../arm-linux-uclibcgnueabi/lib/libc.a(mkdir.o)
                              drivers/LF1000/main.o (mkdir)
/opt/RidgeRun/arm-eabi-uclibc/lib/gcc/arm-linux-uclibcgnueabi/4.1.1/../../../../arm-linux-uclibcgnueabi/lib/libc.a(mmap.o)
                              drivers/LF1000/minimal.o (mmap)
/opt/RidgeRun/arm-eabi-uclibc/lib/gcc/arm-linux-uclibcgnueabi/4.1.1/../../../../arm-linux-uclibcgnueabi/lib/libc.a(munmap.o)
                              drivers/LF1000/minimal.o (munmap)
/opt/RidgeRun/arm-eabi-uclibc/lib/gcc/arm-linux-uclibcgnueabi/4.1.1/../../../../arm-linux-uclibcgnueabi/lib/libc.a(open.o)
                              drivers/LF1000/minimal.o (open)
/opt/RidgeRun/arm-eabi-uclibc/lib/gcc/arm-linux-uclibcgnueabi/4.1.1/../../../../arm-linux-uclibcgnueabi/lib/libc.a(read.o)
                              drivers/LF1000/usbjoy.o (read)
/opt/RidgeRun/arm-eabi-uclibc/lib/gcc/arm-linux-uclibcgnueabi/4.1.1/../../../../arm-linux-uclibcgnueabi/lib/libc.a(sigprocmask.o)
                              /opt/RidgeRun/arm-eabi-uclibc/lib/gcc/arm-linux-uclibcgnueabi/4.1.1/../../../../arm-linux-uclibcgnueabi/lib/libc.a(longjmp.o) (__GI_sigprocmask)
/opt/RidgeRun/arm-eabi-uclibc/lib/gcc/arm-linux-uclibcgnueabi/4.1.1/../../../../arm-linux-uclibcgnueabi/lib/libc.a(stat.o)
                              general.o (stat)
/opt/RidgeRun/arm-eabi-uclibc/lib/gcc/arm-linux-uclibcgnueabi/4.1.1/../../../../arm-linux-uclibcgnueabi/lib/libc.a(sync.o)
                              video.o (sync)
/opt/RidgeRun/arm-eabi-uclibc/lib/gcc/arm-linux-uclibcgnueabi/4.1.1/../../../../arm-linux-uclibcgnueabi/lib/libc.a(write.o)
                              drivers/LF1000/minimal.o (write)
/opt/RidgeRun/arm-eabi-uclibc/lib/gcc/arm-linux-uclibcgnueabi/4.1.1/../../../../arm-linux-uclibcgnueabi/lib/libc.a(xstatconv.o)
                              /opt/RidgeRun/arm-eabi-uclibc/lib/gcc/arm-linux-uclibcgnueabi/4.1.1/../../../../arm-linux-uclibcgnueabi/lib/libc.a(stat.o) (__xstat_conv)
/opt/RidgeRun/arm-eabi-uclibc/lib/gcc/arm-linux-uclibcgnueabi/4.1.1/../../../../arm-linux-uclibcgnueabi/lib/libc.a(__C_ctype_tolower.o)
                              drivers/common/cheat.o (__ctype_tolower)
/opt/RidgeRun/arm-eabi-uclibc/lib/gcc/arm-linux-uclibcgnueabi/4.1.1/../../../../arm-linux-uclibcgnueabi/lib/libc.a(__C_ctype_toupper.o)
                              cheat.o (__ctype_toupper)
/opt/RidgeRun/arm-eabi-uclibc/lib/gcc/arm-linux-uclibcgnueabi/4.1.1/../../../../arm-linux-uclibcgnueabi/lib/libc.a(alphasort.o)
                              drivers/LF1000/menu.o (alphasort)
/opt/RidgeRun/arm-eabi-uclibc/lib/gcc/arm-linux-uclibcgnueabi/4.1.1/../../../../arm-linux-uclibcgnueabi/lib/libc.a(closedir.o)
                              drivers/LF1000/menu.o (closedir)
/opt/RidgeRun/arm-eabi-uclibc/lib/gcc/arm-linux-uclibcgnueabi/4.1.1/../../../../arm-linux-uclibcgnueabi/lib/libc.a(opendir.o)
                              drivers/LF1000/menu.o (opendir)
/opt/RidgeRun/arm-eabi-uclibc/lib/gcc/arm-linux-uclibcgnueabi/4.1.1/../../../../arm-linux-uclibcgnueabi/lib/libc.a(scandir.o)
                              drivers/LF1000/menu.o (scandir)
/opt/RidgeRun/arm-eabi-uclibc/lib/gcc/arm-linux-uclibcgnueabi/4.1.1/../../../../arm-linux-uclibcgnueabi/lib/libc.a(errno.o)
                              drivers/LF1000/minimal.o (errno)
/opt/RidgeRun/arm-eabi-uclibc/lib/gcc/arm-linux-uclibcgnueabi/4.1.1/../../../../arm-linux-uclibcgnueabi/lib/libc.a(fclose.o)
                              fce.o (fclose)
/opt/RidgeRun/arm-eabi-uclibc/lib/gcc/arm-linux-uclibcgnueabi/4.1.1/../../../../arm-linux-uclibcgnueabi/lib/libc.a(fopen.o)
                              fce.o (fopen)
/opt/RidgeRun/arm-eabi-uclibc/lib/gcc/arm-linux-uclibcgnueabi/4.1.1/../../../../arm-linux-uclibcgnueabi/lib/libc.a(fseeko.o)
                              state.o (fseek)
/opt/RidgeRun/arm-eabi-uclibc/lib/gcc/arm-linux-uclibcgnueabi/4.1.1/../../../../arm-linux-uclibcgnueabi/lib/libc.a(ftello.o)
                              state.o (ftell)
/opt/RidgeRun/arm-eabi-uclibc/lib/gcc/arm-linux-uclibcgnueabi/4.1.1/../../../../arm-linux-uclibcgnueabi/lib/libc.a(perror.o)
                              drivers/LF1000/menu.o (perror)
/opt/RidgeRun/arm-eabi-uclibc/lib/gcc/arm-linux-uclibcgnueabi/4.1.1/../../../../arm-linux-uclibcgnueabi/lib/libc.a(puts.o)
                              fce.o (puts)
/opt/RidgeRun/arm-eabi-uclibc/lib/gcc/arm-linux-uclibcgnueabi/4.1.1/../../../../arm-linux-uclibcgnueabi/lib/libc.a(remove.o)
                              cheat.o (remove)
/opt/RidgeRun/arm-eabi-uclibc/lib/gcc/arm-linux-uclibcgnueabi/4.1.1/../../../../arm-linux-uclibcgnueabi/lib/libc.a(rewind.o)
                              file.o (rewind)
/opt/RidgeRun/arm-eabi-uclibc/lib/gcc/arm-linux-uclibcgnueabi/4.1.1/../../../../arm-linux-uclibcgnueabi/lib/libc.a(printf.o)
                              fce.o (printf)
/opt/RidgeRun/arm-eabi-uclibc/lib/gcc/arm-linux-uclibcgnueabi/4.1.1/../../../../arm-linux-uclibcgnueabi/lib/libc.a(vsprintf.o)
                              svga.o (vsprintf)
/opt/RidgeRun/arm-eabi-uclibc/lib/gcc/arm-linux-uclibcgnueabi/4.1.1/../../../../arm-linux-uclibcgnueabi/lib/libc.a(fprintf.o)
                              /opt/RidgeRun/arm-eabi-uclibc/lib/gcc/arm-linux-uclibcgnueabi/4.1.1/../../../../arm-linux-uclibcgnueabi/lib/libc.a(perror.o) (__GI_fprintf)
/opt/RidgeRun/arm-eabi-uclibc/lib/gcc/arm-linux-uclibcgnueabi/4.1.1/../../../../arm-linux-uclibcgnueabi/lib/libc.a(snprintf.o)
                              /home/joe/work/opendidj/rootfs//usr/lib/libpng.a(libpng12_la-png.o) (snprintf)
/opt/RidgeRun/arm-eabi-uclibc/lib/gcc/arm-linux-uclibcgnueabi/4.1.1/../../../../arm-linux-uclibcgnueabi/lib/libc.a(asprintf.o)
                              general.o (asprintf)
/opt/RidgeRun/arm-eabi-uclibc/lib/gcc/arm-linux-uclibcgnueabi/4.1.1/../../../../arm-linux-uclibcgnueabi/lib/libc.a(sprintf.o)
                              nsf.o (sprintf)
/opt/RidgeRun/arm-eabi-uclibc/lib/gcc/arm-linux-uclibcgnueabi/4.1.1/../../../../arm-linux-uclibcgnueabi/lib/libc.a(vasprintf.o)
                              /opt/RidgeRun/arm-eabi-uclibc/lib/gcc/arm-linux-uclibcgnueabi/4.1.1/../../../../arm-linux-uclibcgnueabi/lib/libc.a(asprintf.o) (__GI_vasprintf)
/opt/RidgeRun/arm-eabi-uclibc/lib/gcc/arm-linux-uclibcgnueabi/4.1.1/../../../../arm-linux-uclibcgnueabi/lib/libc.a(vsnprintf.o)
                              /opt/RidgeRun/arm-eabi-uclibc/lib/gcc/arm-linux-uclibcgnueabi/4.1.1/../../../../arm-linux-uclibcgnueabi/lib/libc.a(vsprintf.o) (__GI_vsnprintf)
/opt/RidgeRun/arm-eabi-uclibc/lib/gcc/arm-linux-uclibcgnueabi/4.1.1/../../../../arm-linux-uclibcgnueabi/lib/libc.a(fseeko64.o)
                              /opt/RidgeRun/arm-eabi-uclibc/lib/gcc/arm-linux-uclibcgnueabi/4.1.1/../../../../arm-linux-uclibcgnueabi/lib/libc.a(fseeko.o) (__GI_fseeko64)
/opt/RidgeRun/arm-eabi-uclibc/lib/gcc/arm-linux-uclibcgnueabi/4.1.1/../../../../arm-linux-uclibcgnueabi/lib/libc.a(ftello64.o)
                              /opt/RidgeRun/arm-eabi-uclibc/lib/gcc/arm-linux-uclibcgnueabi/4.1.1/../../../../arm-linux-uclibcgnueabi/lib/libc.a(ftello.o) (__GI_ftello64)
/opt/RidgeRun/arm-eabi-uclibc/lib/gcc/arm-linux-uclibcgnueabi/4.1.1/../../../../arm-linux-uclibcgnueabi/lib/libc.a(_adjust_pos.o)
                              /opt/RidgeRun/arm-eabi-uclibc/lib/gcc/arm-linux-uclibcgnueabi/4.1.1/../../../../arm-linux-uclibcgnueabi/lib/libc.a(fseeko64.o) (__stdio_adjust_position)
/opt/RidgeRun/arm-eabi-uclibc/lib/gcc/arm-linux-uclibcgnueabi/4.1.1/../../../../arm-linux-uclibcgnueabi/lib/libc.a(_fopen.o)
                              /opt/RidgeRun/arm-eabi-uclibc/lib/gcc/arm-linux-uclibcgnueabi/4.1.1/../../../../arm-linux-uclibcgnueabi/lib/libc.a(fopen.o) (_stdio_fopen)
/opt/RidgeRun/arm-eabi-uclibc/lib/gcc/arm-linux-uclibcgnueabi/4.1.1/../../../../arm-linux-uclibcgnueabi/lib/libc.a(_stdio.o)
                              /opt/RidgeRun/arm-eabi-uclibc/lib/gcc/arm-linux-uclibcgnueabi/4.1.1/../../../../arm-linux-uclibcgnueabi/lib/libc.a(vsnprintf.o) (__stdio_init_mutex)
/opt/RidgeRun/arm-eabi-uclibc/lib/gcc/arm-linux-uclibcgnueabi/4.1.1/../../../../arm-linux-uclibcgnueabi/lib/libc.a(_wcommit.o)
                              /opt/RidgeRun/arm-eabi-uclibc/lib/gcc/arm-linux-uclibcgnueabi/4.1.1/../../../../arm-linux-uclibcgnueabi/lib/libc.a(fseeko64.o) (__stdio_wcommit)
/opt/RidgeRun/arm-eabi-uclibc/lib/gcc/arm-linux-uclibcgnueabi/4.1.1/../../../../arm-linux-uclibcgnueabi/lib/libc.a(_cs_funcs.o)
                              /opt/RidgeRun/arm-eabi-uclibc/lib/gcc/arm-linux-uclibcgnueabi/4.1.1/../../../../arm-linux-uclibcgnueabi/lib/libc.a(_fopen.o) (_cs_close)
/opt/RidgeRun/arm-eabi-uclibc/lib/gcc/arm-linux-uclibcgnueabi/4.1.1/../../../../arm-linux-uclibcgnueabi/lib/libc.a(open_memstream.o)
                              /opt/RidgeRun/arm-eabi-uclibc/lib/gcc/arm-linux-uclibcgnueabi/4.1.1/../../../../arm-linux-uclibcgnueabi/lib/libc.a(vasprintf.o) (__GI_open_memstream)
/opt/RidgeRun/arm-eabi-uclibc/lib/gcc/arm-linux-uclibcgnueabi/4.1.1/../../../../arm-linux-uclibcgnueabi/lib/libc.a(vfprintf.o)
                              /opt/RidgeRun/arm-eabi-uclibc/lib/gcc/arm-linux-uclibcgnueabi/4.1.1/../../../../arm-linux-uclibcgnueabi/lib/libc.a(printf.o) (__GI_vfprintf)
/opt/RidgeRun/arm-eabi-uclibc/lib/gcc/arm-linux-uclibcgnueabi/4.1.1/../../../../arm-linux-uclibcgnueabi/lib/libc.a(_ppfs_init.o)
                              /opt/RidgeRun/arm-eabi-uclibc/lib/gcc/arm-linux-uclibcgnueabi/4.1.1/../../../../arm-linux-uclibcgnueabi/lib/libc.a(vfprintf.o) (_ppfs_init)
/opt/RidgeRun/arm-eabi-uclibc/lib/gcc/arm-linux-uclibcgnueabi/4.1.1/../../../../arm-linux-uclibcgnueabi/lib/libc.a(_ppfs_prepargs.o)
                              /opt/RidgeRun/arm-eabi-uclibc/lib/gcc/arm-linux-uclibcgnueabi/4.1.1/../../../../arm-linux-uclibcgnueabi/lib/libc.a(vfprintf.o) (_ppfs_prepargs)
/opt/RidgeRun/arm-eabi-uclibc/lib/gcc/arm-linux-uclibcgnueabi/4.1.1/../../../../arm-linux-uclibcgnueabi/lib/libc.a(_ppfs_setargs.o)
                              /opt/RidgeRun/arm-eabi-uclibc/lib/gcc/arm-linux-uclibcgnueabi/4.1.1/../../../../arm-linux-uclibcgnueabi/lib/libc.a(vfprintf.o) (_ppfs_setargs)
/opt/RidgeRun/arm-eabi-uclibc/lib/gcc/arm-linux-uclibcgnueabi/4.1.1/../../../../arm-linux-uclibcgnueabi/lib/libc.a(_ppfs_parsespec.o)
                              /opt/RidgeRun/arm-eabi-uclibc/lib/gcc/arm-linux-uclibcgnueabi/4.1.1/../../../../arm-linux-uclibcgnueabi/lib/libc.a(vfprintf.o) (_ppfs_parsespec)
/opt/RidgeRun/arm-eabi-uclibc/lib/gcc/arm-linux-uclibcgnueabi/4.1.1/../../../../arm-linux-uclibcgnueabi/lib/libc.a(sscanf.o)
                              cheat.o (sscanf)
/opt/RidgeRun/arm-eabi-uclibc/lib/gcc/arm-linux-uclibcgnueabi/4.1.1/../../../../arm-linux-uclibcgnueabi/lib/libc.a(vsscanf.o)
                              /opt/RidgeRun/arm-eabi-uclibc/lib/gcc/arm-linux-uclibcgnueabi/4.1.1/../../../../arm-linux-uclibcgnueabi/lib/libc.a(sscanf.o) (__GI_vsscanf)
/opt/RidgeRun/arm-eabi-uclibc/lib/gcc/arm-linux-uclibcgnueabi/4.1.1/../../../../arm-linux-uclibcgnueabi/lib/libc.a(ferror.o)
                              drivers/LF1000/menu.o (ferror)
/opt/RidgeRun/arm-eabi-uclibc/lib/gcc/arm-linux-uclibcgnueabi/4.1.1/../../../../arm-linux-uclibcgnueabi/lib/libc.a(fflush.o)
                              drivers/LF1000/minimal.o (fflush)
/opt/RidgeRun/arm-eabi-uclibc/lib/gcc/arm-linux-uclibcgnueabi/4.1.1/../../../../arm-linux-uclibcgnueabi/lib/libc.a(fgetc.o)
                              state.o (fgetc)
/opt/RidgeRun/arm-eabi-uclibc/lib/gcc/arm-linux-uclibcgnueabi/4.1.1/../../../../arm-linux-uclibcgnueabi/lib/libc.a(fgets.o)
                              cheat.o (fgets)
/opt/RidgeRun/arm-eabi-uclibc/lib/gcc/arm-linux-uclibcgnueabi/4.1.1/../../../../arm-linux-uclibcgnueabi/lib/libc.a(fputc.o)
                              state.o (fputc)
/opt/RidgeRun/arm-eabi-uclibc/lib/gcc/arm-linux-uclibcgnueabi/4.1.1/../../../../arm-linux-uclibcgnueabi/lib/libc.a(fread.o)
                              endian.o (fread)
/opt/RidgeRun/arm-eabi-uclibc/lib/gcc/arm-linux-uclibcgnueabi/4.1.1/../../../../arm-linux-uclibcgnueabi/lib/libc.a(fwrite.o)
                              video.o (fwrite)
/opt/RidgeRun/arm-eabi-uclibc/lib/gcc/arm-linux-uclibcgnueabi/4.1.1/../../../../arm-linux-uclibcgnueabi/lib/libc.a(putchar.o)
                              ines.o (putchar)
/opt/RidgeRun/arm-eabi-uclibc/lib/gcc/arm-linux-uclibcgnueabi/4.1.1/../../../../arm-linux-uclibcgnueabi/lib/libc.a(fflush_unlocked.o)
                              /opt/RidgeRun/arm-eabi-uclibc/lib/gcc/arm-linux-uclibcgnueabi/4.1.1/../../../../arm-linux-uclibcgnueabi/lib/libc.a(fclose.o) (__GI_fflush_unlocked)
/opt/RidgeRun/arm-eabi-uclibc/lib/gcc/arm-linux-uclibcgnueabi/4.1.1/../../../../arm-linux-uclibcgnueabi/lib/libc.a(fgetc_unlocked.o)
                              /opt/RidgeRun/arm-eabi-uclibc/lib/gcc/arm-linux-uclibcgnueabi/4.1.1/../../../../arm-linux-uclibcgnueabi/lib/libc.a(fgetc.o) (__GI___fgetc_unlocked)
/opt/RidgeRun/arm-eabi-uclibc/lib/gcc/arm-linux-uclibcgnueabi/4.1.1/../../../../arm-linux-uclibcgnueabi/lib/libc.a(fgets_unlocked.o)
                              /opt/RidgeRun/arm-eabi-uclibc/lib/gcc/arm-linux-uclibcgnueabi/4.1.1/../../../../arm-linux-uclibcgnueabi/lib/libc.a(fgets.o) (__GI_fgets_unlocked)
/opt/RidgeRun/arm-eabi-uclibc/lib/gcc/arm-linux-uclibcgnueabi/4.1.1/../../../../arm-linux-uclibcgnueabi/lib/libc.a(fputc_unlocked.o)
                              /opt/RidgeRun/arm-eabi-uclibc/lib/gcc/arm-linux-uclibcgnueabi/4.1.1/../../../../arm-linux-uclibcgnueabi/lib/libc.a(puts.o) (__GI___fputc_unlocked)
/opt/RidgeRun/arm-eabi-uclibc/lib/gcc/arm-linux-uclibcgnueabi/4.1.1/../../../../arm-linux-uclibcgnueabi/lib/libc.a(fputs_unlocked.o)
                              /opt/RidgeRun/arm-eabi-uclibc/lib/gcc/arm-linux-uclibcgnueabi/4.1.1/../../../../arm-linux-uclibcgnueabi/lib/libc.a(puts.o) (__GI_fputs_unlocked)
/opt/RidgeRun/arm-eabi-uclibc/lib/gcc/arm-linux-uclibcgnueabi/4.1.1/../../../../arm-linux-uclibcgnueabi/lib/libc.a(fread_unlocked.o)
                              /opt/RidgeRun/arm-eabi-uclibc/lib/gcc/arm-linux-uclibcgnueabi/4.1.1/../../../../arm-linux-uclibcgnueabi/lib/libc.a(fread.o) (__GI_fread_unlocked)
/opt/RidgeRun/arm-eabi-uclibc/lib/gcc/arm-linux-uclibcgnueabi/4.1.1/../../../../arm-linux-uclibcgnueabi/lib/libc.a(fwrite_unlocked.o)
                              /opt/RidgeRun/arm-eabi-uclibc/lib/gcc/arm-linux-uclibcgnueabi/4.1.1/../../../../arm-linux-uclibcgnueabi/lib/libc.a(fwrite.o) (__GI_fwrite_unlocked)
/opt/RidgeRun/arm-eabi-uclibc/lib/gcc/arm-linux-uclibcgnueabi/4.1.1/../../../../arm-linux-uclibcgnueabi/lib/libc.a(memcmp.o)
                              nsf.o (memcmp)
/opt/RidgeRun/arm-eabi-uclibc/lib/gcc/arm-linux-uclibcgnueabi/4.1.1/../../../../arm-linux-uclibcgnueabi/lib/libc.a(memcpy.o)
                              general.o (memcpy)
/opt/RidgeRun/arm-eabi-uclibc/lib/gcc/arm-linux-uclibcgnueabi/4.1.1/../../../../arm-linux-uclibcgnueabi/lib/libc.a(memset.o)
                              fce.o (memset)
/opt/RidgeRun/arm-eabi-uclibc/lib/gcc/arm-linux-uclibcgnueabi/4.1.1/../../../../arm-linux-uclibcgnueabi/lib/libc.a(strcmp.o)
                              unif.o (strcmp)
/opt/RidgeRun/arm-eabi-uclibc/lib/gcc/arm-linux-uclibcgnueabi/4.1.1/../../../../arm-linux-uclibcgnueabi/lib/libc.a(strlen.o)
                              fce.o (strlen)
/opt/RidgeRun/arm-eabi-uclibc/lib/gcc/arm-linux-uclibcgnueabi/4.1.1/../../../../arm-linux-uclibcgnueabi/lib/libc.a(strncmp.o)
                              drivers/LF1000/main.o (strncmp)
/opt/RidgeRun/arm-eabi-uclibc/lib/gcc/arm-linux-uclibcgnueabi/4.1.1/../../../../arm-linux-uclibcgnueabi/lib/libc.a(strcat.o)
                              drivers/LF1000/menu.o (strcat)
/opt/RidgeRun/arm-eabi-uclibc/lib/gcc/arm-linux-uclibcgnueabi/4.1.1/../../../../arm-linux-uclibcgnueabi/lib/libc.a(strcpy.o)
                              fce.o (strcpy)
/opt/RidgeRun/arm-eabi-uclibc/lib/gcc/arm-linux-uclibcgnueabi/4.1.1/../../../../arm-linux-uclibcgnueabi/lib/libc.a(strncpy.o)
                              fce.o (strncpy)
/opt/RidgeRun/arm-eabi-uclibc/lib/gcc/arm-linux-uclibcgnueabi/4.1.1/../../../../arm-linux-uclibcgnueabi/lib/libc.a(strnlen.o)
                              /opt/RidgeRun/arm-eabi-uclibc/lib/gcc/arm-linux-uclibcgnueabi/4.1.1/../../../../arm-linux-uclibcgnueabi/lib/libc.a(vfprintf.o) (__GI_strnlen)
/opt/RidgeRun/arm-eabi-uclibc/lib/gcc/arm-linux-uclibcgnueabi/4.1.1/../../../../arm-linux-uclibcgnueabi/lib/libc.a(strrchr.o)
                              general.o (strrchr)
/opt/RidgeRun/arm-eabi-uclibc/lib/gcc/arm-linux-uclibcgnueabi/4.1.1/../../../../arm-linux-uclibcgnueabi/lib/libc.a(strstr.o)
                              ines.o (strstr)
/opt/RidgeRun/arm-eabi-uclibc/lib/gcc/arm-linux-uclibcgnueabi/4.1.1/../../../../arm-linux-uclibcgnueabi/lib/libc.a(__glibc_strerror_r.o)
                              /opt/RidgeRun/arm-eabi-uclibc/lib/gcc/arm-linux-uclibcgnueabi/4.1.1/../../../../arm-linux-uclibcgnueabi/lib/libc.a(vfprintf.o) (__GI___glibc_strerror_r)
/opt/RidgeRun/arm-eabi-uclibc/lib/gcc/arm-linux-uclibcgnueabi/4.1.1/../../../../arm-linux-uclibcgnueabi/lib/libc.a(__xpg_strerror_r.o)
                              /opt/RidgeRun/arm-eabi-uclibc/lib/gcc/arm-linux-uclibcgnueabi/4.1.1/../../../../arm-linux-uclibcgnueabi/lib/libc.a(__glibc_strerror_r.o) (__GI___xpg_strerror_r)
/opt/RidgeRun/arm-eabi-uclibc/lib/gcc/arm-linux-uclibcgnueabi/4.1.1/../../../../arm-linux-uclibcgnueabi/lib/libc.a(_string_syserrmsgs.o)
                              /opt/RidgeRun/arm-eabi-uclibc/lib/gcc/arm-linux-uclibcgnueabi/4.1.1/../../../../arm-linux-uclibcgnueabi/lib/libc.a(__xpg_strerror_r.o) (_string_syserrmsgs)
/opt/RidgeRun/arm-eabi-uclibc/lib/gcc/arm-linux-uclibcgnueabi/4.1.1/../../../../arm-linux-uclibcgnueabi/lib/libc.a(strcasecmp.o)
                              fce.o (strcasecmp)
/opt/RidgeRun/arm-eabi-uclibc/lib/gcc/arm-linux-uclibcgnueabi/4.1.1/../../../../arm-linux-uclibcgnueabi/lib/libc.a(strdup.o)
                              general.o (strdup)
/opt/RidgeRun/arm-eabi-uclibc/lib/gcc/arm-linux-uclibcgnueabi/4.1.1/../../../../arm-linux-uclibcgnueabi/lib/libc.a(strerror.o)
                              drivers/LF1000/minimal.o (strerror)
/opt/RidgeRun/arm-eabi-uclibc/lib/gcc/arm-linux-uclibcgnueabi/4.1.1/../../../../arm-linux-uclibcgnueabi/lib/libc.a(strncasecmp.o)
                              drivers/LF1000/usbjoy.o (strncasecmp)
/opt/RidgeRun/arm-eabi-uclibc/lib/gcc/arm-linux-uclibcgnueabi/4.1.1/../../../../arm-linux-uclibcgnueabi/lib/libc.a(isatty.o)
                              /opt/RidgeRun/arm-eabi-uclibc/lib/gcc/arm-linux-uclibcgnueabi/4.1.1/../../../../arm-linux-uclibcgnueabi/lib/libc.a(_fopen.o) (__GI_isatty)
/opt/RidgeRun/arm-eabi-uclibc/lib/gcc/arm-linux-uclibcgnueabi/4.1.1/../../../../arm-linux-uclibcgnueabi/lib/libc.a(tcgetattr.o)
                              /opt/RidgeRun/arm-eabi-uclibc/lib/gcc/arm-linux-uclibcgnueabi/4.1.1/../../../../arm-linux-uclibcgnueabi/lib/libc.a(isatty.o) (__GI_tcgetattr)
/opt/RidgeRun/arm-eabi-uclibc/lib/gcc/arm-linux-uclibcgnueabi/4.1.1/../../../../arm-linux-uclibcgnueabi/lib/libc.a(signal.o)
                              drivers/LF1000/main.o (signal)
/opt/RidgeRun/arm-eabi-uclibc/lib/gcc/arm-linux-uclibcgnueabi/4.1.1/../../../../arm-linux-uclibcgnueabi/lib/libc.a(sigsetops.o)
                              /opt/RidgeRun/arm-eabi-uclibc/lib/gcc/arm-linux-uclibcgnueabi/4.1.1/../../../../arm-linux-uclibcgnueabi/lib/libc.a(signal.o) (__sigismember)
/opt/RidgeRun/arm-eabi-uclibc/lib/gcc/arm-linux-uclibcgnueabi/4.1.1/../../../../arm-linux-uclibcgnueabi/lib/libc.a(malloc.o)
                              video.o (malloc)
/opt/RidgeRun/arm-eabi-uclibc/lib/gcc/arm-linux-uclibcgnueabi/4.1.1/../../../../arm-linux-uclibcgnueabi/lib/libc.a(calloc.o)
                              mappers/emu2413.o (calloc)
/opt/RidgeRun/arm-eabi-uclibc/lib/gcc/arm-linux-uclibcgnueabi/4.1.1/../../../../arm-linux-uclibcgnueabi/lib/libc.a(free.o)
                              fce.o (free)
/opt/RidgeRun/arm-eabi-uclibc/lib/gcc/arm-linux-uclibcgnueabi/4.1.1/../../../../arm-linux-uclibcgnueabi/lib/libc.a(realloc.o)
                              file.o (realloc)
/opt/RidgeRun/arm-eabi-uclibc/lib/gcc/arm-linux-uclibcgnueabi/4.1.1/../../../../arm-linux-uclibcgnueabi/lib/libc.a(heap_alloc.o)
                              /opt/RidgeRun/arm-eabi-uclibc/lib/gcc/arm-linux-uclibcgnueabi/4.1.1/../../../../arm-linux-uclibcgnueabi/lib/libc.a(malloc.o) (__heap_alloc)
/opt/RidgeRun/arm-eabi-uclibc/lib/gcc/arm-linux-uclibcgnueabi/4.1.1/../../../../arm-linux-uclibcgnueabi/lib/libc.a(heap_alloc_at.o)
                              /opt/RidgeRun/arm-eabi-uclibc/lib/gcc/arm-linux-uclibcgnueabi/4.1.1/../../../../arm-linux-uclibcgnueabi/lib/libc.a(realloc.o) (__heap_alloc_at)
/opt/RidgeRun/arm-eabi-uclibc/lib/gcc/arm-linux-uclibcgnueabi/4.1.1/../../../../arm-linux-uclibcgnueabi/lib/libc.a(heap_free.o)
                              /opt/RidgeRun/arm-eabi-uclibc/lib/gcc/arm-linux-uclibcgnueabi/4.1.1/../../../../arm-linux-uclibcgnueabi/lib/libc.a(malloc.o) (__heap_free)
/opt/RidgeRun/arm-eabi-uclibc/lib/gcc/arm-linux-uclibcgnueabi/4.1.1/../../../../arm-linux-uclibcgnueabi/lib/libc.a(abort.o)
                              /opt/RidgeRun/arm-eabi-uclibc/lib/gcc/arm-linux-uclibcgnueabi/4.1.1/../../../../arm-linux-uclibcgnueabi/lib/crt1.o (abort)
/opt/RidgeRun/arm-eabi-uclibc/lib/gcc/arm-linux-uclibcgnueabi/4.1.1/../../../../arm-linux-uclibcgnueabi/lib/libc.a(system.o)
                              drivers/LF1000/squidgehack.o (system)
/opt/RidgeRun/arm-eabi-uclibc/lib/gcc/arm-linux-uclibcgnueabi/4.1.1/../../../../arm-linux-uclibcgnueabi/lib/libc.a(atol.o)
                              drivers/common/args.o (atoi)
/opt/RidgeRun/arm-eabi-uclibc/lib/gcc/arm-linux-uclibcgnueabi/4.1.1/../../../../arm-linux-uclibcgnueabi/lib/libc.a(strtol.o)
                              /opt/RidgeRun/arm-eabi-uclibc/lib/gcc/arm-linux-uclibcgnueabi/4.1.1/../../../../arm-linux-uclibcgnueabi/lib/libc.a(atol.o) (__GI_strtol)
/opt/RidgeRun/arm-eabi-uclibc/lib/gcc/arm-linux-uclibcgnueabi/4.1.1/../../../../arm-linux-uclibcgnueabi/lib/libc.a(_stdlib_strto_l.o)
                              /opt/RidgeRun/arm-eabi-uclibc/lib/gcc/arm-linux-uclibcgnueabi/4.1.1/../../../../arm-linux-uclibcgnueabi/lib/libc.a(strtol.o) (_stdlib_strto_l)
/opt/RidgeRun/arm-eabi-uclibc/lib/gcc/arm-linux-uclibcgnueabi/4.1.1/../../../../arm-linux-uclibcgnueabi/lib/libc.a(qsort.o)
                              /opt/RidgeRun/arm-eabi-uclibc/lib/gcc/arm-linux-uclibcgnueabi/4.1.1/../../../../arm-linux-uclibcgnueabi/lib/libc.a(scandir.o) (__GI_qsort)
/opt/RidgeRun/arm-eabi-uclibc/lib/gcc/arm-linux-uclibcgnueabi/4.1.1/../../../../arm-linux-uclibcgnueabi/lib/libc.a(exit.o)
                              memory.o (exit)
/opt/RidgeRun/arm-eabi-uclibc/lib/gcc/arm-linux-uclibcgnueabi/4.1.1/../../../../arm-linux-uclibcgnueabi/lib/libc.a(execl.o)
                              drivers/LF1000/minimal.o (execl)
/opt/RidgeRun/arm-eabi-uclibc/lib/gcc/arm-linux-uclibcgnueabi/4.1.1/../../../../arm-linux-uclibcgnueabi/lib/libc.a(usleep.o)
                              drivers/LF1000/minimal.o (usleep)
/opt/RidgeRun/arm-eabi-uclibc/lib/gcc/arm-linux-uclibcgnueabi/4.1.1/../../../../arm-linux-uclibcgnueabi/lib/libc.a(__uClibc_main.o)
                              /opt/RidgeRun/arm-eabi-uclibc/lib/gcc/arm-linux-uclibcgnueabi/4.1.1/../../../../arm-linux-uclibcgnueabi/lib/libc.a(exit.o) (__GI___uClibc_fini)
/opt/RidgeRun/arm-eabi-uclibc/lib/gcc/arm-linux-uclibcgnueabi/4.1.1/../../../../arm-linux-uclibcgnueabi/lib/libc.a(weaks.o)
                              /opt/RidgeRun/arm-eabi-uclibc/lib/gcc/arm-linux-uclibcgnueabi/4.1.1/../../../../arm-linux-uclibcgnueabi/lib/libc.a(opendir.o) (__pthread_mutex_init)
/opt/RidgeRun/arm-eabi-uclibc/lib/gcc/arm-linux-uclibcgnueabi/4.1.1/../../../../arm-linux-uclibcgnueabi/lib/libc.a(libc-cancellation.o)
                              /opt/RidgeRun/arm-eabi-uclibc/lib/gcc/arm-linux-uclibcgnueabi/4.1.1/../../../../arm-linux-uclibcgnueabi/lib/libc.a(__syscall_fcntl.o) (__libc_disable_asynccancel)
/opt/RidgeRun/arm-eabi-uclibc/lib/gcc/arm-linux-uclibcgnueabi/4.1.1/../../../../arm-linux-uclibcgnueabi/lib/libc.a(libc-tls.o)
                              /opt/RidgeRun/arm-eabi-uclibc/lib/gcc/arm-linux-uclibcgnueabi/4.1.1/../../../../arm-linux-uclibcgnueabi/lib/libc.a(__uClibc_main.o) (__pthread_initialize_minimal)
/opt/RidgeRun/arm-eabi-uclibc/lib/gcc/arm-linux-uclibcgnueabi/4.1.1/../../../../arm-linux-uclibcgnueabi/lib/libc.a(libc_multiple_threads.o)
                              /opt/RidgeRun/arm-eabi-uclibc/lib/gcc/arm-linux-uclibcgnueabi/4.1.1/../../../../arm-linux-uclibcgnueabi/lib/libc.a(__syscall_fcntl.o) (__libc_multiple_threads)
/opt/RidgeRun/arm-eabi-uclibc/lib/gcc/arm-linux-uclibcgnueabi/4.1.1/../../../../arm-linux-uclibcgnueabi/lib/libc.a(sigaction.o)
                              /opt/RidgeRun/arm-eabi-uclibc/lib/gcc/arm-linux-uclibcgnueabi/4.1.1/../../../../arm-linux-uclibcgnueabi/lib/libc.a(signal.o) (__GI_sigaction)
/opt/RidgeRun/arm-eabi-uclibc/lib/gcc/arm-linux-uclibcgnueabi/4.1.1/../../../../arm-linux-uclibcgnueabi/lib/libc.a(__longjmp.o)
                              /opt/RidgeRun/arm-eabi-uclibc/lib/gcc/arm-linux-uclibcgnueabi/4.1.1/../../../../arm-linux-uclibcgnueabi/lib/libc.a(longjmp.o) (__GI___longjmp)
/opt/RidgeRun/arm-eabi-uclibc/lib/gcc/arm-linux-uclibcgnueabi/4.1.1/../../../../arm-linux-uclibcgnueabi/lib/libc.a(setjmp.o)
                              /opt/RidgeRun/arm-eabi-uclibc/lib/gcc/arm-linux-uclibcgnueabi/4.1.1/../../../../arm-linux-uclibcgnueabi/lib/libc.a(bsd-_setjmp.o) (__sigsetjmp)
/opt/RidgeRun/arm-eabi-uclibc/lib/gcc/arm-linux-uclibcgnueabi/4.1.1/../../../../arm-linux-uclibcgnueabi/lib/libc.a(sigrestorer.o)
                              /opt/RidgeRun/arm-eabi-uclibc/lib/gcc/arm-linux-uclibcgnueabi/4.1.1/../../../../arm-linux-uclibcgnueabi/lib/libc.a(sigaction.o) (__default_sa_restorer)
/opt/RidgeRun/arm-eabi-uclibc/lib/gcc/arm-linux-uclibcgnueabi/4.1.1/../../../../arm-linux-uclibcgnueabi/lib/libc.a(mmap64.o)
                              /opt/RidgeRun/arm-eabi-uclibc/lib/gcc/arm-linux-uclibcgnueabi/4.1.1/../../../../arm-linux-uclibcgnueabi/lib/libc.a(mmap.o) (mmap64)
/opt/RidgeRun/arm-eabi-uclibc/lib/gcc/arm-linux-uclibcgnueabi/4.1.1/../../../../arm-linux-uclibcgnueabi/lib/libc.a(__syscall_rt_sigaction.o)
                              /opt/RidgeRun/arm-eabi-uclibc/lib/gcc/arm-linux-uclibcgnueabi/4.1.1/../../../../arm-linux-uclibcgnueabi/lib/libc.a(sigaction.o) (__syscall_rt_sigaction)
/opt/RidgeRun/arm-eabi-uclibc/lib/gcc/arm-linux-uclibcgnueabi/4.1.1/../../../../arm-linux-uclibcgnueabi/lib/libc.a(_exit.o)
                              /opt/RidgeRun/arm-eabi-uclibc/lib/gcc/arm-linux-uclibcgnueabi/4.1.1/../../../../arm-linux-uclibcgnueabi/lib/libc.a(abort.o) (__GI__exit)
/opt/RidgeRun/arm-eabi-uclibc/lib/gcc/arm-linux-uclibcgnueabi/4.1.1/../../../../arm-linux-uclibcgnueabi/lib/libc.a(execve.o)
                              /opt/RidgeRun/arm-eabi-uclibc/lib/gcc/arm-linux-uclibcgnueabi/4.1.1/../../../../arm-linux-uclibcgnueabi/lib/libc.a(execl.o) (__GI_execve)
/opt/RidgeRun/arm-eabi-uclibc/lib/gcc/arm-linux-uclibcgnueabi/4.1.1/../../../../arm-linux-uclibcgnueabi/lib/libc.a(fstat.o)
                              /opt/RidgeRun/arm-eabi-uclibc/lib/gcc/arm-linux-uclibcgnueabi/4.1.1/../../../../arm-linux-uclibcgnueabi/lib/libc.a(opendir.o) (__GI_fstat)
/opt/RidgeRun/arm-eabi-uclibc/lib/gcc/arm-linux-uclibcgnueabi/4.1.1/../../../../arm-linux-uclibcgnueabi/lib/libc.a(getegid.o)
                              /opt/RidgeRun/arm-eabi-uclibc/lib/gcc/arm-linux-uclibcgnueabi/4.1.1/../../../../arm-linux-uclibcgnueabi/lib/libc.a(__uClibc_main.o) (__GI_getegid)
/opt/RidgeRun/arm-eabi-uclibc/lib/gcc/arm-linux-uclibcgnueabi/4.1.1/../../../../arm-linux-uclibcgnueabi/lib/libc.a(geteuid.o)
                              /opt/RidgeRun/arm-eabi-uclibc/lib/gcc/arm-linux-uclibcgnueabi/4.1.1/../../../../arm-linux-uclibcgnueabi/lib/libc.a(__uClibc_main.o) (__GI_geteuid)
/opt/RidgeRun/arm-eabi-uclibc/lib/gcc/arm-linux-uclibcgnueabi/4.1.1/../../../../arm-linux-uclibcgnueabi/lib/libc.a(getgid.o)
                              /opt/RidgeRun/arm-eabi-uclibc/lib/gcc/arm-linux-uclibcgnueabi/4.1.1/../../../../arm-linux-uclibcgnueabi/lib/libc.a(__uClibc_main.o) (__GI_getgid)
/opt/RidgeRun/arm-eabi-uclibc/lib/gcc/arm-linux-uclibcgnueabi/4.1.1/../../../../arm-linux-uclibcgnueabi/lib/libc.a(getuid.o)
                              /opt/RidgeRun/arm-eabi-uclibc/lib/gcc/arm-linux-uclibcgnueabi/4.1.1/../../../../arm-linux-uclibcgnueabi/lib/libc.a(__uClibc_main.o) (__GI_getuid)
/opt/RidgeRun/arm-eabi-uclibc/lib/gcc/arm-linux-uclibcgnueabi/4.1.1/../../../../arm-linux-uclibcgnueabi/lib/libc.a(llseek.o)
                              /opt/RidgeRun/arm-eabi-uclibc/lib/gcc/arm-linux-uclibcgnueabi/4.1.1/../../../../arm-linux-uclibcgnueabi/lib/libc.a(_cs_funcs.o) (__GI_lseek64)
/opt/RidgeRun/arm-eabi-uclibc/lib/gcc/arm-linux-uclibcgnueabi/4.1.1/../../../../arm-linux-uclibcgnueabi/lib/libc.a(nanosleep.o)
                              /opt/RidgeRun/arm-eabi-uclibc/lib/gcc/arm-linux-uclibcgnueabi/4.1.1/../../../../arm-linux-uclibcgnueabi/lib/libc.a(usleep.o) (__GI_nanosleep)
/opt/RidgeRun/arm-eabi-uclibc/lib/gcc/arm-linux-uclibcgnueabi/4.1.1/../../../../arm-linux-uclibcgnueabi/lib/libc.a(rmdir.o)
                              /opt/RidgeRun/arm-eabi-uclibc/lib/gcc/arm-linux-uclibcgnueabi/4.1.1/../../../../arm-linux-uclibcgnueabi/lib/libc.a(remove.o) (__GI_rmdir)
/opt/RidgeRun/arm-eabi-uclibc/lib/gcc/arm-linux-uclibcgnueabi/4.1.1/../../../../arm-linux-uclibcgnueabi/lib/libc.a(sbrk.o)
                              /opt/RidgeRun/arm-eabi-uclibc/lib/gcc/arm-linux-uclibcgnueabi/4.1.1/../../../../arm-linux-uclibcgnueabi/lib/libc.a(malloc.o) (__GI_sbrk)
/opt/RidgeRun/arm-eabi-uclibc/lib/gcc/arm-linux-uclibcgnueabi/4.1.1/../../../../arm-linux-uclibcgnueabi/lib/libc.a(unlink.o)
                              /opt/RidgeRun/arm-eabi-uclibc/lib/gcc/arm-linux-uclibcgnueabi/4.1.1/../../../../arm-linux-uclibcgnueabi/lib/libc.a(remove.o) (__GI_unlink)
/opt/RidgeRun/arm-eabi-uclibc/lib/gcc/arm-linux-uclibcgnueabi/4.1.1/../../../../arm-linux-uclibcgnueabi/lib/libc.a(waitpid.o)
                              /opt/RidgeRun/arm-eabi-uclibc/lib/gcc/arm-linux-uclibcgnueabi/4.1.1/../../../../arm-linux-uclibcgnueabi/lib/libc.a(system.o) (__GI_waitpid)
/opt/RidgeRun/arm-eabi-uclibc/lib/gcc/arm-linux-uclibcgnueabi/4.1.1/../../../../arm-linux-uclibcgnueabi/lib/libc.a(__C_ctype_b.o)
                              /opt/RidgeRun/arm-eabi-uclibc/lib/gcc/arm-linux-uclibcgnueabi/4.1.1/../../../../arm-linux-uclibcgnueabi/lib/libc.a(_ppfs_parsespec.o) (__GI___ctype_b)
/opt/RidgeRun/arm-eabi-uclibc/lib/gcc/arm-linux-uclibcgnueabi/4.1.1/../../../../arm-linux-uclibcgnueabi/lib/libc.a(readdir.o)
                              /opt/RidgeRun/arm-eabi-uclibc/lib/gcc/arm-linux-uclibcgnueabi/4.1.1/../../../../arm-linux-uclibcgnueabi/lib/libc.a(scandir.o) (__GI_readdir)
/opt/RidgeRun/arm-eabi-uclibc/lib/gcc/arm-linux-uclibcgnueabi/4.1.1/../../../../arm-linux-uclibcgnueabi/lib/libc.a(wcrtomb.o)
                              /opt/RidgeRun/arm-eabi-uclibc/lib/gcc/arm-linux-uclibcgnueabi/4.1.1/../../../../arm-linux-uclibcgnueabi/lib/libc.a(vfprintf.o) (__GI_wcrtomb)
/opt/RidgeRun/arm-eabi-uclibc/lib/gcc/arm-linux-uclibcgnueabi/4.1.1/../../../../arm-linux-uclibcgnueabi/lib/libc.a(wcsrtombs.o)
                              /opt/RidgeRun/arm-eabi-uclibc/lib/gcc/arm-linux-uclibcgnueabi/4.1.1/../../../../arm-linux-uclibcgnueabi/lib/libc.a(vfprintf.o) (__GI_wcsrtombs)
/opt/RidgeRun/arm-eabi-uclibc/lib/gcc/arm-linux-uclibcgnueabi/4.1.1/../../../../arm-linux-uclibcgnueabi/lib/libc.a(wcsnrtombs.o)
                              /opt/RidgeRun/arm-eabi-uclibc/lib/gcc/arm-linux-uclibcgnueabi/4.1.1/../../../../arm-linux-uclibcgnueabi/lib/libc.a(wcrtomb.o) (__GI_wcsnrtombs)
/opt/RidgeRun/arm-eabi-uclibc/lib/gcc/arm-linux-uclibcgnueabi/4.1.1/../../../../arm-linux-uclibcgnueabi/lib/libc.a(_READ.o)
                              /opt/RidgeRun/arm-eabi-uclibc/lib/gcc/arm-linux-uclibcgnueabi/4.1.1/../../../../arm-linux-uclibcgnueabi/lib/libc.a(fgetc_unlocked.o) (__stdio_READ)
/opt/RidgeRun/arm-eabi-uclibc/lib/gcc/arm-linux-uclibcgnueabi/4.1.1/../../../../arm-linux-uclibcgnueabi/lib/libc.a(_WRITE.o)
                              /opt/RidgeRun/arm-eabi-uclibc/lib/gcc/arm-linux-uclibcgnueabi/4.1.1/../../../../arm-linux-uclibcgnueabi/lib/libc.a(_wcommit.o) (__stdio_WRITE)
/opt/RidgeRun/arm-eabi-uclibc/lib/gcc/arm-linux-uclibcgnueabi/4.1.1/../../../../arm-linux-uclibcgnueabi/lib/libc.a(_fwrite.o)
                              /opt/RidgeRun/arm-eabi-uclibc/lib/gcc/arm-linux-uclibcgnueabi/4.1.1/../../../../arm-linux-uclibcgnueabi/lib/libc.a(vfprintf.o) (__stdio_fwrite)
/opt/RidgeRun/arm-eabi-uclibc/lib/gcc/arm-linux-uclibcgnueabi/4.1.1/../../../../arm-linux-uclibcgnueabi/lib/libc.a(_rfill.o)
                              /opt/RidgeRun/arm-eabi-uclibc/lib/gcc/arm-linux-uclibcgnueabi/4.1.1/../../../../arm-linux-uclibcgnueabi/lib/libc.a(fgetc_unlocked.o) (__stdio_rfill)
/opt/RidgeRun/arm-eabi-uclibc/lib/gcc/arm-linux-uclibcgnueabi/4.1.1/../../../../arm-linux-uclibcgnueabi/lib/libc.a(_trans2r.o)
                              /opt/RidgeRun/arm-eabi-uclibc/lib/gcc/arm-linux-uclibcgnueabi/4.1.1/../../../../arm-linux-uclibcgnueabi/lib/libc.a(fgetc_unlocked.o) (__stdio_trans2r_o)
/opt/RidgeRun/arm-eabi-uclibc/lib/gcc/arm-linux-uclibcgnueabi/4.1.1/../../../../arm-linux-uclibcgnueabi/lib/libc.a(_trans2w.o)
                              /opt/RidgeRun/arm-eabi-uclibc/lib/gcc/arm-linux-uclibcgnueabi/4.1.1/../../../../arm-linux-uclibcgnueabi/lib/libc.a(vfprintf.o) (__stdio_trans2w_o)
/opt/RidgeRun/arm-eabi-uclibc/lib/gcc/arm-linux-uclibcgnueabi/4.1.1/../../../../arm-linux-uclibcgnueabi/lib/libc.a(_load_inttype.o)
                              /opt/RidgeRun/arm-eabi-uclibc/lib/gcc/arm-linux-uclibcgnueabi/4.1.1/../../../../arm-linux-uclibcgnueabi/lib/libc.a(vfprintf.o) (_load_inttype)
/opt/RidgeRun/arm-eabi-uclibc/lib/gcc/arm-linux-uclibcgnueabi/4.1.1/../../../../arm-linux-uclibcgnueabi/lib/libc.a(_store_inttype.o)
                              /opt/RidgeRun/arm-eabi-uclibc/lib/gcc/arm-linux-uclibcgnueabi/4.1.1/../../../../arm-linux-uclibcgnueabi/lib/libc.a(vfprintf.o) (_store_inttype)
/opt/RidgeRun/arm-eabi-uclibc/lib/gcc/arm-linux-uclibcgnueabi/4.1.1/../../../../arm-linux-uclibcgnueabi/lib/libc.a(_uintmaxtostr.o)
                              /opt/RidgeRun/arm-eabi-uclibc/lib/gcc/arm-linux-uclibcgnueabi/4.1.1/../../../../arm-linux-uclibcgnueabi/lib/libc.a(vfprintf.o) (_uintmaxtostr)
/opt/RidgeRun/arm-eabi-uclibc/lib/gcc/arm-linux-uclibcgnueabi/4.1.1/../../../../arm-linux-uclibcgnueabi/lib/libc.a(_fpmaxtostr.o)
                              /opt/RidgeRun/arm-eabi-uclibc/lib/gcc/arm-linux-uclibcgnueabi/4.1.1/../../../../arm-linux-uclibcgnueabi/lib/libc.a(vfprintf.o) (_fpmaxtostr)
/opt/RidgeRun/arm-eabi-uclibc/lib/gcc/arm-linux-uclibcgnueabi/4.1.1/../../../../arm-linux-uclibcgnueabi/lib/libc.a(fopencookie.o)
                              /opt/RidgeRun/arm-eabi-uclibc/lib/gcc/arm-linux-uclibcgnueabi/4.1.1/../../../../arm-linux-uclibcgnueabi/lib/libc.a(open_memstream.o) (__GI_fopencookie)
/opt/RidgeRun/arm-eabi-uclibc/lib/gcc/arm-linux-uclibcgnueabi/4.1.1/../../../../arm-linux-uclibcgnueabi/lib/libc.a(vfscanf.o)
                              /opt/RidgeRun/arm-eabi-uclibc/lib/gcc/arm-linux-uclibcgnueabi/4.1.1/../../../../arm-linux-uclibcgnueabi/lib/libc.a(vsscanf.o) (__GI_vfscanf)
/opt/RidgeRun/arm-eabi-uclibc/lib/gcc/arm-linux-uclibcgnueabi/4.1.1/../../../../arm-linux-uclibcgnueabi/lib/libc.a(__scan_cookie.o)
                              /opt/RidgeRun/arm-eabi-uclibc/lib/gcc/arm-linux-uclibcgnueabi/4.1.1/../../../../arm-linux-uclibcgnueabi/lib/libc.a(vfscanf.o) (__init_scan_cookie)
/opt/RidgeRun/arm-eabi-uclibc/lib/gcc/arm-linux-uclibcgnueabi/4.1.1/../../../../arm-linux-uclibcgnueabi/lib/libc.a(__psfs_parse_spec.o)
                              /opt/RidgeRun/arm-eabi-uclibc/lib/gcc/arm-linux-uclibcgnueabi/4.1.1/../../../../arm-linux-uclibcgnueabi/lib/libc.a(vfscanf.o) (__psfs_parse_spec)
/opt/RidgeRun/arm-eabi-uclibc/lib/gcc/arm-linux-uclibcgnueabi/4.1.1/../../../../arm-linux-uclibcgnueabi/lib/libc.a(__psfs_do_numeric.o)
                              /opt/RidgeRun/arm-eabi-uclibc/lib/gcc/arm-linux-uclibcgnueabi/4.1.1/../../../../arm-linux-uclibcgnueabi/lib/libc.a(vfscanf.o) (__psfs_do_numeric)
/opt/RidgeRun/arm-eabi-uclibc/lib/gcc/arm-linux-uclibcgnueabi/4.1.1/../../../../arm-linux-uclibcgnueabi/lib/libc.a(_memcpy.o)
                              /opt/RidgeRun/arm-eabi-uclibc/lib/gcc/arm-linux-uclibcgnueabi/4.1.1/../../../../arm-linux-uclibcgnueabi/lib/libc.a(memcpy.o) (_memcpy)
/opt/RidgeRun/arm-eabi-uclibc/lib/gcc/arm-linux-uclibcgnueabi/4.1.1/../../../../arm-linux-uclibcgnueabi/lib/libc.a(memchr.o)
                              /opt/RidgeRun/arm-eabi-uclibc/lib/gcc/arm-linux-uclibcgnueabi/4.1.1/../../../../arm-linux-uclibcgnueabi/lib/libc.a(_fwrite.o) (__GI_memchr)
/opt/RidgeRun/arm-eabi-uclibc/lib/gcc/arm-linux-uclibcgnueabi/4.1.1/../../../../arm-linux-uclibcgnueabi/lib/libc.a(mempcpy.o)
                              /opt/RidgeRun/arm-eabi-uclibc/lib/gcc/arm-linux-uclibcgnueabi/4.1.1/../../../../arm-linux-uclibcgnueabi/lib/libc.a(tcgetattr.o) (__GI_mempcpy)
/opt/RidgeRun/arm-eabi-uclibc/lib/gcc/arm-linux-uclibcgnueabi/4.1.1/../../../../arm-linux-uclibcgnueabi/lib/libc.a(memrchr.o)
                              /opt/RidgeRun/arm-eabi-uclibc/lib/gcc/arm-linux-uclibcgnueabi/4.1.1/../../../../arm-linux-uclibcgnueabi/lib/libc.a(_fwrite.o) (__GI_memrchr)
/opt/RidgeRun/arm-eabi-uclibc/lib/gcc/arm-linux-uclibcgnueabi/4.1.1/../../../../arm-linux-uclibcgnueabi/lib/libc.a(strchr.o)
                              /opt/RidgeRun/arm-eabi-uclibc/lib/gcc/arm-linux-uclibcgnueabi/4.1.1/../../../../arm-linux-uclibcgnueabi/lib/libc.a(strrchr.o) (__GI_strchr)
/opt/RidgeRun/arm-eabi-uclibc/lib/gcc/arm-linux-uclibcgnueabi/4.1.1/../../../../arm-linux-uclibcgnueabi/lib/libc.a(sigjmp.o)
                              /opt/RidgeRun/arm-eabi-uclibc/lib/gcc/arm-linux-uclibcgnueabi/4.1.1/../../../../arm-linux-uclibcgnueabi/lib/libc.a(setjmp.o) (__sigjmp_save)
/opt/RidgeRun/arm-eabi-uclibc/lib/gcc/arm-linux-uclibcgnueabi/4.1.1/../../../../arm-linux-uclibcgnueabi/lib/libc.a(_stdlib_strto_ll.o)
                              /opt/RidgeRun/arm-eabi-uclibc/lib/gcc/arm-linux-uclibcgnueabi/4.1.1/../../../../arm-linux-uclibcgnueabi/lib/libc.a(__psfs_do_numeric.o) (_stdlib_strto_ll)
/opt/RidgeRun/arm-eabi-uclibc/lib/gcc/arm-linux-uclibcgnueabi/4.1.1/../../../../arm-linux-uclibcgnueabi/lib/libc.a(__strtofpmax.o)
                              /opt/RidgeRun/arm-eabi-uclibc/lib/gcc/arm-linux-uclibcgnueabi/4.1.1/../../../../arm-linux-uclibcgnueabi/lib/libc.a(__psfs_do_numeric.o) (__strtofpmax)
/opt/RidgeRun/arm-eabi-uclibc/lib/gcc/arm-linux-uclibcgnueabi/4.1.1/../../../../arm-linux-uclibcgnueabi/lib/libc.a(dl-support.o)
                              /opt/RidgeRun/arm-eabi-uclibc/lib/gcc/arm-linux-uclibcgnueabi/4.1.1/../../../../arm-linux-uclibcgnueabi/lib/libc.a(libc-tls.o) (_dl_phdr)
/opt/RidgeRun/arm-eabi-uclibc/lib/gcc/arm-linux-uclibcgnueabi/4.1.1/../../../../arm-linux-uclibcgnueabi/lib/libc.a(brk.o)
                              /opt/RidgeRun/arm-eabi-uclibc/lib/gcc/arm-linux-uclibcgnueabi/4.1.1/../../../../arm-linux-uclibcgnueabi/lib/libc.a(sbrk.o) (__GI_brk)
/opt/RidgeRun/arm-eabi-uclibc/lib/gcc/arm-linux-uclibcgnueabi/4.1.1/../../../../arm-linux-uclibcgnueabi/lib/libc.a(__syscall_error.o)
                              /opt/RidgeRun/arm-eabi-uclibc/lib/gcc/arm-linux-uclibcgnueabi/4.1.1/../../../../arm-linux-uclibcgnueabi/lib/libc.a(mmap64.o) (__syscall_error)
/opt/RidgeRun/arm-eabi-uclibc/lib/gcc/arm-linux-uclibcgnueabi/4.1.1/../../../../arm-linux-uclibcgnueabi/lib/libc.a(getdents.o)
                              /opt/RidgeRun/arm-eabi-uclibc/lib/gcc/arm-linux-uclibcgnueabi/4.1.1/../../../../arm-linux-uclibcgnueabi/lib/libc.a(readdir.o) (__getdents)
/opt/RidgeRun/arm-eabi-uclibc/lib/gcc/arm-linux-uclibcgnueabi/4.1.1/../../../../arm-linux-uclibcgnueabi/lib/libc.a(getdents64.o)
                              /opt/RidgeRun/arm-eabi-uclibc/lib/gcc/arm-linux-uclibcgnueabi/4.1.1/../../../../arm-linux-uclibcgnueabi/lib/libc.a(getdents.o) (__getdents64)
/opt/RidgeRun/arm-eabi-uclibc/lib/gcc/arm-linux-uclibcgnueabi/4.1.1/../../../../arm-linux-uclibcgnueabi/lib/libc.a(wait4.o)
                              /opt/RidgeRun/arm-eabi-uclibc/lib/gcc/arm-linux-uclibcgnueabi/4.1.1/../../../../arm-linux-uclibcgnueabi/lib/libc.a(waitpid.o) (__GI_wait4)
/opt/RidgeRun/arm-eabi-uclibc/lib/gcc/arm-linux-uclibcgnueabi/4.1.1/../../../../arm-linux-uclibcgnueabi/lib/libc.a(mbrtowc.o)
                              /opt/RidgeRun/arm-eabi-uclibc/lib/gcc/arm-linux-uclibcgnueabi/4.1.1/../../../../arm-linux-uclibcgnueabi/lib/libc.a(vfscanf.o) (__GI_mbrtowc)
/opt/RidgeRun/arm-eabi-uclibc/lib/gcc/arm-linux-uclibcgnueabi/4.1.1/../../../../arm-linux-uclibcgnueabi/lib/libc.a(mbsnrtowcs.o)
                              /opt/RidgeRun/arm-eabi-uclibc/lib/gcc/arm-linux-uclibcgnueabi/4.1.1/../../../../arm-linux-uclibcgnueabi/lib/libc.a(mbrtowc.o) (__GI_mbsnrtowcs)
/opt/RidgeRun/arm-eabi-uclibc/lib/gcc/arm-linux-uclibcgnueabi/4.1.1/../../../../arm-linux-uclibcgnueabi/lib/libc.a(ungetc.o)
                              /opt/RidgeRun/arm-eabi-uclibc/lib/gcc/arm-linux-uclibcgnueabi/4.1.1/../../../../arm-linux-uclibcgnueabi/lib/libc.a(vfscanf.o) (__GI_ungetc)
/opt/RidgeRun/arm-eabi-uclibc/lib/gcc/arm-linux-uclibcgnueabi/4.1.1/../../../../arm-linux-uclibcgnueabi/lib/libc.a(memmove.o)
                              /opt/RidgeRun/arm-eabi-uclibc/lib/gcc/arm-linux-uclibcgnueabi/4.1.1/../../../../arm-linux-uclibcgnueabi/lib/libc.a(getdents.o) (__GI_memmove)
/opt/RidgeRun/arm-eabi-uclibc/lib/gcc/arm-linux-uclibcgnueabi/4.1.1/libgcc.a(_truncdfsf2.o)
                              /opt/RidgeRun/arm-eabi-uclibc/lib/gcc/arm-linux-uclibcgnueabi/4.1.1/../../../../arm-linux-uclibcgnueabi/lib/libc.a(__psfs_do_numeric.o) (__aeabi_d2f)

Allocating common symbols
Common symbol       size              file

curMovieFilename    0x200             movie.o
sprlinebuf          0x108             ppu.o
MMC5BGVPage         0x20              fce.o
SPRAM               0x100             ppu.o
PPUGenLatch         0x1               fce.o
IRQCount            0x1               boards/mmc3.o
MapClose            0x4               ines.o
geniech             0x3               cart.o
MMC5HackExNTARAMPtr
                    0x4               fce.o
PPUNTARAM           0x1               fce.o
PPUSPL              0x1               fce.o
decvolume           0x3               sound.o
MMC5HackSPMode      0x1               fce.o
PRGmask2            0x80              cart.o
pwrap               0x4               boards/mmc3.o
PRGmask32           0x80              cart.o
lastLoadedGameName  0x800             fce.o
CHRmask4            0x80              cart.o
_dl_tls_static_used
                    0x4               /opt/RidgeRun/arm-eabi-uclibc/lib/gcc/arm-linux-uclibcgnueabi/4.1.1/../../../../arm-linux-uclibcgnueabi/lib/libc.a(libc-tls.o)
MapperReset         0x4               ines.o
InputScanlineHook   0x4               input.o
palettec            0xc0              palette.o
gp2x_palette16      0x200             drivers/LF1000/gp2x-video.o
Settings            0x2b4             drivers/LF1000/gp2x.o
vnapage             0x10              fce.o
mwrap               0x4               boards/mmc3.o
paletten            0xc0              palette.o
CHRRAMSize          0x4               boards/mmc3.o
nreg                0x2               sound.o
FSettings           0x30              svga.o
gp2x_screen         0x4               drivers/LF1000/minimal.o
soundtsinc          0x4               sound.o
scanline            0x4               fce.o
sphitx              0x4               ppu.o
PRGptr              0x80              cart.o
TempAddr            0x4               fce.o
ARead               0x40000           fce.o
soundtsi            0x4               sound.o
PRGmask8            0x80              cart.o
CHRRAM              0x4               boards/mmc3.o
cwrap               0x4               boards/mmc3.o
RefreshAddr         0x4               fce.o
g_argv              0x4               drivers/LF1000/gp2x.o
_dl_tls_static_align
                    0x4               /opt/RidgeRun/arm-eabi-uclibc/lib/gcc/arm-linux-uclibcgnueabi/4.1.1/../../../../arm-linux-uclibcgnueabi/lib/libc.a(libc-tls.o)
sphitdata           0x1               ppu.o
_dl_tls_max_dtv_idx
                    0x4               /opt/RidgeRun/arm-eabi-uclibc/lib/gcc/arm-linux-uclibcgnueabi/4.1.1/../../../../arm-linux-uclibcgnueabi/lib/libc.a(libc-tls.o)
PPUCHRRAM           0x1               fce.o
palo                0x4               palette.o
GameMemBlock        0x20000           fce.o
IRQReload           0x1               boards/mmc3.o
CHRmask1            0x80              cart.o
GameHBIRQHook2      0x4               fce.o
realvolume          0x3               sound.o
SPRBUF              0x100             ppu.o
_dl_tls_static_size
                    0x4               /opt/RidgeRun/arm-eabi-uclibc/lib/gcc/arm-linux-uclibcgnueabi/4.1.1/../../../../arm-linux-uclibcgnueabi/lib/libc.a(libc-tls.o)
_custom_printf_arginfo
                    0x28              /opt/RidgeRun/arm-eabi-uclibc/lib/gcc/arm-linux-uclibcgnueabi/4.1.1/../../../../arm-linux-uclibcgnueabi/lib/libc.a(_ppfs_parsespec.o)
erendline           0x4               drivers/LF1000/main.o
palettei            0xc0              palette.o
CHRptr              0x80              cart.o
VPage               0x20              cart.o
MMC5HackVROMPTR     0x4               fce.o
_dl_tls_dtv_slotinfo_list
                    0x4               /opt/RidgeRun/arm-eabi-uclibc/lib/gcc/arm-linux-uclibcgnueabi/4.1.1/../../../../arm-linux-uclibcgnueabi/lib/libc.a(libc-tls.o)
GameInterface       0x4               fce.o
PRGmask16           0x80              cart.o
lowp                0x4               sound.o
CHRmask8            0x80              cart.o
joys                0x10              drivers/LF1000/usbjoy.o
DecCountTo1         0x3               sound.o
PPU_hook            0x4               fce.o
paletterefresh      0x4               drivers/LF1000/gp2x-video.o
_dl_tls_dtv_gaps    0x1               /opt/RidgeRun/arm-eabi-uclibc/lib/gcc/arm-linux-uclibcgnueabi/4.1.1/../../../../arm-linux-uclibcgnueabi/lib/libc.a(libc-tls.o)
MMC5Hack            0x4               fce.o
MMC3_cmd            0x1               boards/mmc3.o
genieval            0x3               cart.o
SweepCount          0x2               sound.o
Page                0x80              cart.o
MapStateRestore     0x4               ines.o
_dl_phdr            0x4               /opt/RidgeRun/arm-eabi-uclibc/lib/gcc/arm-linux-uclibcgnueabi/4.1.1/../../../../arm-linux-uclibcgnueabi/lib/libc.a(dl-support.o)
GameStateRestore    0x4               fce.o
PPU                 0x4               fce.o
_dl_tls_generation  0x4               /opt/RidgeRun/arm-eabi-uclibc/lib/gcc/arm-linux-uclibcgnueabi/4.1.1/../../../../arm-linux-uclibcgnueabi/lib/libc.a(libc-tls.o)
WRAM                0x4               boards/mmc3.o
MMC5HackSPPage      0x1               fce.o
NTARAM              0x800             fce.o
WaveFinalMono       0x1400            sound.o
MMC5HackVROMMask    0x4               fce.o
modcon              0x4               cart.o
PCMIRQCount         0x4               sound.o
RefreshAddrT        0x2               fce.o
IRQa                0x1               boards/mmc3.o
__malloc_sbrk_lock  0x18              /opt/RidgeRun/arm-eabi-uclibc/lib/gcc/arm-linux-uclibcgnueabi/4.1.1/../../../../arm-linux-uclibcgnueabi/lib/libc.a(malloc.o)
CHRmask2            0x80              cart.o
TempAddrT           0x2               fce.o
PSG_base            0x4               sound.o
__libc_multiple_threads
                    0x4               /opt/RidgeRun/arm-eabi-uclibc/lib/gcc/arm-linux-uclibcgnueabi/4.1.1/../../../../arm-linux-uclibcgnueabi/lib/libc.a(libc_multiple_threads.o)
FCEUGameInfo        0x34              fce.o
GameHBIRQHook       0x4               fce.o
curvs               0x4               vsuni.o
PSG                 0x18              sound.o
gp2x_memregs        0x4               drivers/LF1000/minimal.o
VPageG              0x20              cart.o
StateBuffer         0x4               state.o
MMC5HackSPScroll    0x1               fce.o
Wave                0x2800            sound.o
PRGsize             0x80              cart.o
_dl_tls_static_nelem
                    0x4               /opt/RidgeRun/arm-eabi-uclibc/lib/gcc/arm-linux-uclibcgnueabi/4.1.1/../../../../arm-linux-uclibcgnueabi/lib/libc.a(libc-tls.o)
gp2x_memregl        0x4               drivers/LF1000/minimal.o
PRGmask4            0x80              cart.o
gp2x_palette        0x400             drivers/LF1000/gp2x-video.o
_sigintr            0x80              /opt/RidgeRun/arm-eabi-uclibc/lib/gcc/arm-linux-uclibcgnueabi/4.1.1/../../../../arm-linux-uclibcgnueabi/lib/libc.a(signal.o)
EXPREGS             0x8               boards/mmc3.o
_dl_phnum           0x4               /opt/RidgeRun/arm-eabi-uclibc/lib/gcc/arm-linux-uclibcgnueabi/4.1.1/../../../../arm-linux-uclibcgnueabi/lib/libc.a(dl-support.o)
SaveStateStatus     0xa               state.o
intostate           0x4               state.o
fhinc               0x4               sound.o
_custom_printf_handler
                    0x28              /opt/RidgeRun/arm-eabi-uclibc/lib/gcc/arm-linux-uclibcgnueabi/4.1.1/../../../../arm-linux-uclibcgnueabi/lib/libc.a(_ppfs_parsespec.o)
srendline           0x4               drivers/LF1000/main.o
VRAMBuffer          0x1               fce.o
BWrite              0x40000           fce.o
nesincsize          0x4               sound.o
PALRAM              0x20              fce.o
CHRsize             0x80              cart.o
IRQLatch            0x1               boards/mmc3.o
highp               0x4               sound.o
FileBase            0x800             general.o
genieaddr           0xc               cart.o
MMC5SPRVPage        0x20              fce.o

Memory Configuration

Name             Origin             Length             Attributes
*default*        0x00000000         0xffffffff

Linker script and memory map

LOAD /opt/RidgeRun/arm-eabi-uclibc/lib/gcc/arm-linux-uclibcgnueabi/4.1.1/../../../../arm-linux-uclibcgnueabi/lib/crt1.o
LOAD /opt/RidgeRun/arm-eabi-uclibc/lib/gcc/arm-linux-uclibcgnueabi/4.1.1/../../../../arm-linux-uclibcgnueabi/lib/crti.o
LOAD /opt/RidgeRun/arm-eabi-uclibc/lib/gcc/arm-linux-uclibcgnueabi/4.1.1/crtbeginT.o
LOAD fce.o
LOAD video.o
LOAD general.o
LOAD endian.o
LOAD svga.o
LOAD sound.o
LOAD nsf.o
LOAD fds.o
LOAD netplay.o
LOAD ines.o
LOAD state.o
LOAD unif.o
LOAD input.o
LOAD file.o
LOAD cart.o
LOAD crc32.o
LOAD memory.o
LOAD cheat.o
LOAD debug.o
LOAD md5.o
LOAD vsuni.o
LOAD palette.o
LOAD mappers/113.o
LOAD mappers/15.o
LOAD mappers/151.o
LOAD mappers/16.o
LOAD mappers/17.o
LOAD mappers/18.o
LOAD mappers/180.o
LOAD mappers/183.o
LOAD mappers/184.o
LOAD mappers/193.o
LOAD mappers/200.o
LOAD mappers/201.o
LOAD mappers/202.o
LOAD mappers/203.o
LOAD mappers/204.o
LOAD mappers/21.o
LOAD mappers/212.o
LOAD mappers/213.o
LOAD mappers/214.o
LOAD mappers/215.o
LOAD mappers/217.o
LOAD mappers/22.o
LOAD mappers/225.o
LOAD mappers/226.o
LOAD mappers/227.o
LOAD mappers/228.o
LOAD mappers/229.o
LOAD mappers/23.o
LOAD mappers/230.o
LOAD mappers/231.o
LOAD mappers/232.o
LOAD mappers/234.o
LOAD mappers/240.o
LOAD mappers/241.o
LOAD mappers/242.o
LOAD mappers/244.o
LOAD mappers/246.o
LOAD mappers/24and26.o
LOAD mappers/25.o
LOAD mappers/255.o
LOAD mappers/27.o
LOAD mappers/32.o
LOAD mappers/33.o
LOAD mappers/40.o
LOAD mappers/41.o
LOAD mappers/42.o
LOAD mappers/43.o
LOAD mappers/46.o
LOAD mappers/50.o
LOAD mappers/51.o
LOAD mappers/59.o
LOAD mappers/6.o
LOAD mappers/60.o
LOAD mappers/61.o
LOAD mappers/62.o
LOAD mappers/65.o
LOAD mappers/67.o
LOAD mappers/68.o
LOAD mappers/69.o
LOAD mappers/71.o
LOAD mappers/72.o
LOAD mappers/73.o
LOAD mappers/75.o
LOAD mappers/76.o
LOAD mappers/77.o
LOAD mappers/79.o
LOAD mappers/8.o
LOAD mappers/80.o
LOAD mappers/82.o
LOAD mappers/83.o
LOAD mappers/85.o
LOAD mappers/86.o
LOAD mappers/89.o
LOAD mappers/91.o
LOAD mappers/92.o
LOAD mappers/97.o
LOAD mappers/99.o
LOAD mappers/emu2413.o
LOAD mappers/mmc2and4.o
LOAD mappers/simple.o
LOAD boards/112.o
LOAD boards/117.o
LOAD boards/164.o
LOAD boards/183.o
LOAD boards/185.o
LOAD boards/186.o
LOAD boards/187.o
LOAD boards/189.o
LOAD boards/208.o
LOAD boards/222.o
LOAD boards/235.o
LOAD boards/57.o
LOAD boards/8157.o
LOAD boards/8237.o
LOAD boards/88.o
LOAD boards/90.o
LOAD boards/95.o
LOAD boards/bmc13in1jy110.o
LOAD boards/bmc42in1r.o
LOAD boards/bmc64in1nr.o
LOAD boards/bmc70in1.o
LOAD boards/bmcgk192.o
LOAD boards/bonza.o
LOAD boards/cc21.o
LOAD boards/datalatch.o
LOAD boards/deirom.o
LOAD boards/dream.o
LOAD boards/fk23c.o
LOAD boards/h2288.o
LOAD boards/karaoke.o
LOAD boards/kof97.o
LOAD boards/konami-qtai.o
LOAD boards/malee.o
LOAD boards/mmc1.o
LOAD boards/mmc3.o
LOAD boards/mmc5.o
LOAD boards/n106.o
LOAD boards/novel.o
LOAD boards/sachen.o
LOAD boards/sheroes.o
LOAD boards/sl1632.o
LOAD boards/sonic5.o
LOAD boards/subor.o
LOAD boards/super24.o
LOAD boards/supervision.o
LOAD boards/t-262.o
LOAD boards/tengen.o
LOAD boards/__dummy_mapper.o
LOAD input/cursor.o
LOAD input/zapper.o
LOAD input/powerpad.o
LOAD input/arkanoid.o
LOAD input/shadow.o
LOAD input/fkb.o
LOAD input/hypershot.o
LOAD input/mahjong.o
LOAD input/oekakids.o
LOAD input/ftrainer.o
LOAD input/quiz.o
LOAD input/toprider.o
LOAD input/bworld.o
LOAD input/suborkb.o
LOAD drivers/LF1000/minimal.o
LOAD drivers/LF1000/cpuctrl.o
LOAD drivers/LF1000/squidgehack.o
LOAD drivers/LF1000/asmutils.o
LOAD drivers/LF1000/gp2x.o
LOAD drivers/LF1000/main.o
LOAD drivers/LF1000/throttle.o
LOAD drivers/LF1000/unix-netplay.o
LOAD drivers/LF1000/gp2x-sound.o
LOAD drivers/LF1000/gp2x-video.o
LOAD drivers/LF1000/usbjoy.o
LOAD drivers/LF1000/menu.o
LOAD drivers/LF1000/fonts.o
LOAD drivers/LF1000/readpng.o
LOAD drivers/common/cheat.o
LOAD drivers/common/config.o
LOAD drivers/common/args.o
LOAD drivers/common/vidblit.o
LOAD zlib/unzip.o
LOAD ppu.o
LOAD movie.o
LOAD fceu098.o
LOAD ppu098.o
LOAD ncpu.o
LOAD /opt/RidgeRun/arm-eabi-uclibc/lib/gcc/arm-linux-uclibcgnueabi/4.1.1/../../../../arm-linux-uclibcgnueabi/lib/libm.a
LOAD /home/joe/work/opendidj/rootfs//usr/lib/libz.a
LOAD /home/joe/work/opendidj/rootfs//usr/lib/libpng.a
START GROUP
LOAD /opt/RidgeRun/arm-eabi-uclibc/lib/gcc/arm-linux-uclibcgnueabi/4.1.1/libgcc.a
LOAD /opt/RidgeRun/arm-eabi-uclibc/lib/gcc/arm-linux-uclibcgnueabi/4.1.1/libgcc_eh.a
LOAD /opt/RidgeRun/arm-eabi-uclibc/lib/gcc/arm-linux-uclibcgnueabi/4.1.1/../../../../arm-linux-uclibcgnueabi/lib/libc.a
END GROUP
LOAD /opt/RidgeRun/arm-eabi-uclibc/lib/gcc/arm-linux-uclibcgnueabi/4.1.1/crtend.o
LOAD /opt/RidgeRun/arm-eabi-uclibc/lib/gcc/arm-linux-uclibcgnueabi/4.1.1/../../../../arm-linux-uclibcgnueabi/lib/crtn.o
                0x00008000                PROVIDE (__executable_start, 0x8000)
                0x000080d4                . = (0x8000 + SIZEOF_HEADERS)

.interp
 *(.interp)

.hash
 *(.hash)

.dynsym
 *(.dynsym)

.dynstr
 *(.dynstr)

.gnu.version
 *(.gnu.version)

.gnu.version_d
 *(.gnu.version_d)

.gnu.version_r
 *(.gnu.version_r)

.rel.dyn        0x000080d4        0x0
 *(.rel.init)
 *(.rel.text .rel.text.* .rel.gnu.linkonce.t.*)
 *(.rel.fini)
 *(.rel.rodata .rel.rodata.* .rel.gnu.linkonce.r.*)
 *(.rel.data.rel.ro* .rel.gnu.linkonce.d.rel.ro.*)
 *(.rel.data .rel.data.* .rel.gnu.linkonce.d.*)
 *(.rel.tdata .rel.tdata.* .rel.gnu.linkonce.td.*)
 *(.rel.tbss .rel.tbss.* .rel.gnu.linkonce.tb.*)
 *(.rel.ctors)
 *(.rel.dtors)
 *(.rel.got)
 *(.rel.bss .rel.bss.* .rel.gnu.linkonce.b.*)

.rela.dyn
 *(.rela.init)
 *(.rela.text .rela.text.* .rela.gnu.linkonce.t.*)
 *(.rela.fini)
 *(.rela.rodata .rela.rodata.* .rela.gnu.linkonce.r.*)
 *(.rela.data .rela.data.* .rela.gnu.linkonce.d.*)
 *(.rela.tdata .rela.tdata.* .rela.gnu.linkonce.td.*)
 *(.rela.tbss .rela.tbss.* .rela.gnu.linkonce.tb.*)
 *(.rela.ctors)
 *(.rela.dtors)
 *(.rela.got)
 *(.rela.bss .rela.bss.* .rela.gnu.linkonce.b.*)

.rel.plt
 *(.rel.plt)

.rela.plt
 *(.rela.plt)

.init           0x000080d4        0x8
 *(.init)
 .init          0x000080d4        0x4 /opt/RidgeRun/arm-eabi-uclibc/lib/gcc/arm-linux-uclibcgnueabi/4.1.1/../../../../arm-linux-uclibcgnueabi/lib/crti.o
                0x000080d4                _init
 .init          0x000080d8        0x4 /opt/RidgeRun/arm-eabi-uclibc/lib/gcc/arm-linux-uclibcgnueabi/4.1.1/../../../../arm-linux-uclibcgnueabi/lib/crtn.o

.plt
 *(.plt)

.text           0x000080e0    0x85300
 *(.text .stub .text.* .gnu.linkonce.t.*)
 .text          0x000080e0       0x3c /opt/RidgeRun/arm-eabi-uclibc/lib/gcc/arm-linux-uclibcgnueabi/4.1.1/../../../../arm-linux-uclibcgnueabi/lib/crt1.o
                0x000080e0                _start
 .text          0x0000811c       0x9c /opt/RidgeRun/arm-eabi-uclibc/lib/gcc/arm-linux-uclibcgnueabi/4.1.1/crtbeginT.o
 .text          0x000081b8     0x5098 fce.o
                0x0000a3ec                FCEUI_LoadGame
                0x000098b8                ResetNES081
                0x00008718                BGRender
                0x00009aac                ResetMapping
                0x000098a4                FCEUI_CloseGame
                0x00008260                BNull
                0x0000a0f8                FCEUI_Initialize
                0x00008388                GetWriteHandler
                0x000081b8                asmcpu_pack
                0x00008808                FCEUI_FrameSkip
                0x00009d74                PowerNES
                0x00008264                ANull
                0x00009a38                CloseGame
                0x0000a26c                ResetGameLoaded
                0x000082bc                SetReadHandler
                0x0000a04c                asmcpu_unpack
                0x00009f48                FlushGenieRW
                0x00008274                GetReadHandler
                0x0000999c                FCEU_ResetVidSys
                0x00009984                FCEUI_Kill
                0x00009840                FCEUI_SetEmuMode
                0x00009fe0                AllocGenieRW
                0x000083d0                SetWriteHandler
 .text          0x0000d250      0x440 video.o
                0x0000d634                InitVirtualVideo
                0x0000d370                SaveSnapshot
 .text          0x0000d690      0x750 general.o
                0x0000d7e0                FCEU_MakePath
                0x0000d85c                FCEU_MakeFName
                0x0000ddb0                FCEUI_SetBaseDirectory
                0x0000d690                FCEUI_SetDirOverride
                0x0000d6d8                GetFileBase
                0x0000d6a4                uppow2
                0x0000dd24                FCEU_GetPath
 .text          0x0000dde0      0x108 endian.o
                0x0000dea4                write16
                0x0000dde0                read16
                0x0000de10                read32
                0x0000de50                write32
 .text          0x0000dee8      0xbc4 svga.o
                0x0000e660                FCEUI_LoadState
                0x0000defc                FCEUI_SetRenderedLines
                0x0000e678                FCEUI_SaveState
                0x0000e6c0                FCEU_DispMessage
                0x0000dfac                FCEUI_SetSnapName
                0x0000e484                FCEU_PutImageDummy
                0x0000e71c                FCEU_PrintError
                0x0000df40                FCEUI_GetCurrentVidSystem
                0x0000e76c                FCEU_PutImage
                0x0000e4a0                DrawTextTrans
                0x0000e00c                DriverInterface
                0x0000e3ac                FCEU_DrawRecordingStatusN
                0x0000df94                FCEUI_SetGameGenie
                0x0000e690                FCEUI_SetVidSystem
                0x0000dfd0                FCEUI_GetDesiredFPS
                0x0000dfcc                FCEUI_SelectState
                0x0000dff8                FCEUI_SaveSnapshot
                0x0000e078                DrawTextLineBG
                0x0000dee8                FCEU_CancelDispMessage
                0x0000e0fc                FCEU_DrawNumberRow
                0x0000dfbc                FCEUI_SaveExtraDataUnderBase
 .text          0x0000eaac     0x2628 sound.o
                0x00010458                SetNESSoundMap
                0x00010fa4                PowerSound
                0x0000fc4c                FlushEmulateSound
                0x00010448                FCEUI_Sound
                0x0000f200                FrameSoundUpdate
                0x0000ffc0                FCEUI_SetSoundVolume
                0x0000eae8                Read_PSG
                0x0000ffd0                SetSoundVariables
                0x0000fed4                ResetSound
                0x0000ff7c                FixOldSaveStateSFreq
                0x00010f10                Write_IRQFM
                0x0000eb6c                Read_PSGDummy
                0x0000feb8                GetSoundBuffer
 .text          0x000110d4     0x18ac nsf.o
                0x00011144                FCEUI_NSFGetInfo
                0x000110e4                FCEUI_NSFSetVis
                0x00012440                NSF_init
                0x00011bdc                NSFLoad
                0x0001119c                DoNSFFrame
                0x000110f4                FCEUI_NSFChange
                0x000111e8                DrawNSF
                0x0001285c                NSFGI
 .text          0x00012980     0x1af8 fds.o
                0x00013128                FDSSound
                0x00013584                FCEU_FDSSelect
                0x00013608                FCEU_FDSInsert
                0x00013238                FDSSoundStateAdd
                0x000139c0                FDSLoad
                0x00013ecc                FDSSoundReset
                0x00013fc0                FDSGI
 .text          0x00014478     0x1e88 ines.o
                0x00014920                VROM_BANK2
                0x000148c8                VROM_BANK4
                0x00014868                VROM_BANK8
                0x000144ec                VRAM_BANK4
                0x00014c40                iNESLoad
                0x00014bb8                CheckBad
                0x0001471c                MIRROR_SET
                0x00014494                VRAM_BANK1
                0x00014820                ROM_BANK16
                0x0001477c                onemir
                0x000146e8                VROM_BANK1
                0x00014588                ROM_BANK8
                0x00014750                MIRROR_SET2
                0x000145bc                iNESStateRestore
                0x000147c0                ROM_BANK32
 .text          0x00016300     0x2094 state.o
                0x00017148                SaveState
                0x00016314                AddExState
                0x000173e4                FCEUSS_LoadFP
                0x00016300                SaveStateRefresh
                0x00016424                ResetExState
                0x000182f0                LoadState
 .text          0x00018394      0xe3c unif.o
                0x0001868c                LoadUNIFChunks
                0x00018d54                UNIFLoad
 .text          0x000191d0     0x1084 input.o
                0x00019c80                FCEUI_SetInput
                0x00019828                FCEU_DoSimpleCommand
                0x00019c50                FCEUI_VSUniToggleDIP
                0x00019a74                UpdateInput
                0x00019818                FCEUI_DisableFourScore
                0x00019df8                InitializeInput
                0x00019914                FCEU_QSimpleCommand
                0x00019c40                FCEUI_PowerNES
                0x00019c48                FCEUI_ResetNES
                0x00019918                FCEUI_SetInputFC
                0x000191d0                FCEU_GetJoyJoy
                0x00019c60                FCEUI_FDSInsert
                0x000194fc                DrawInput
                0x00019c38                FCEUI_FDSSelect
                0x00019c58                FCEUI_VSUniCoin
 .text          0x0001a254      0xa78 file.o
                0x0001a954                FCEU_fopen_forcemem
                0x0001a38c                FCEU_rewind
                0x0001a364                FCEU_read32
                0x0001a438                FCEU_fopen
                0x0001a284                FCEU_fgetsize
                0x0001a3dc                FCEU_fread
                0x0001a254                FCEU_fisarchive
                0x0001a3b4                FCEU_fwrite
                0x0001a404                FCEU_fclose
                0x0001a25c                FCEU_ftell
                0x0001a308                FCEU_fgetc
                0x0001a548                ApplyIPS
                0x0001a2e0                FCEU_fseek
 .text          0x0001accc     0x3220 cart.o
                0x0001b51c                FCEU_SaveGameSave
                0x0001ae6c                SetupCartCHRMapping
                0x0001daf0                setprg8
                0x0001cb3c                setprg8r
                0x0001add0                SetupCartPRGMapping
                0x0001b8c0                OpenGenie
                0x0001bdc4                setvramb1
                0x0001c2fc                setprg2r
                0x0001b4f0                FCEU_KillGenie
                0x0001bb74                setmirrorw
                0x0001af60                setvram8
                0x0001b71c                CloseGenie
                0x0001be24                setchr8r
                0x0001af04                CartBW
                0x0001b2ec                DumpEmptyCartMapping
                0x0001cfe4                setprg4
                0x0001c060                setchr2r
                0x0001ba80                setmirror
                0x0001c388                setprg32r
                0x0001c8e4                setprg16r
                0x0001cf54                setprg2
                0x0001bbd8                setntamem
                0x0001dc98                setprg16
                0x0001b3ac                FCEU_LoadGameSave
                0x0001c254                setprg4r
                0x0001bc60                setvramb8
                0x0001d264                setchr4
                0x0001ce24                SetupCartMirroring
                0x0001d088                setchr1
                0x0001d598                setprg32
                0x0001bcd8                setvramb4
                0x0001bd58                setvramb2
                0x0001b758                FixGenieMap
                0x0001afa0                setvram4
                0x0001bf58                setchr4r
                0x0001ccec                setchr8
                0x0001af34                CartBROB
                0x0001d170                setchr2
                0x0001aeec                CartBR
                0x0001c160                setchr1r
                0x0001b13c                GenieSetPages
                0x0001accc                ResetCartMapping
                0x0001b5f8                GeniePower
 .text          0x0001deec       0xfc memory.o
                0x0001df88                FCEU_malloc
                0x0001df58                FCEU_gfree
                0x0001df70                FCEU_free
                0x0001dfb4                FCEU_gmalloc
                0x0001deec                FCEU_memmove
 .text          0x0001dfe8     0x2754 cheat.o
                0x0001fba0                FCEUI_DelCheat
                0x0001f1ec                FCEUI_CheatSearchEnd
                0x0001e108                FCEUI_ListCheats
                0x0001e2bc                FCEUI_CheatSearchGetCount
                0x0001f5bc                FCEUI_CheatSearchBegin
                0x0001e008                FCEU_CheatAddRAM
                0x0001f84c                FCEUI_ToggleCheat
                0x0001e0ac                FCEU_ApplyPeriodicCheats
                0x0001fd64                FCEUI_AddCheat
                0x0001e17c                FCEUI_GetCheat
                0x0001e230                FCEUI_CheatSearchSetCurrentAsOriginal
                0x0001e290                FCEUI_CheatSearchShowExcluded
                0x0001f76c                FCEU_PowerCheats
                0x0002036c                FCEU_LoadGameCheats
                0x0001f9cc                FCEUI_SetCheat
                0x0001f678                FCEUI_CheatSearchGetRange
                0x0001e4d8                FCEUI_DecodeGG
                0x0001f4ec                FCEUI_CheatSearchGet
                0x0001dfe8                FCEU_CheatResetRAM
                0x0001e3c0                RebuildSubCheats
                0x0001e31c                FCEUI_DecodePAR
                0x0001ff6c                FCEU_FlushGameCheats
 .text          0x0002073c       0xd4 debug.o
                0x0002073c                DumpMem
 .text          0x00020810     0x103c md5.o
                0x0002163c                md5_update
                0x00021718                md5_finish
                0x00021458                md5_asciistr
                0x00020810                md5_starts
                0x00020850                md5_process
 .text          0x0002184c      0x760 vsuni.o
                0x00021a80                FCEU_VSUniSwap
                0x00021ce8                FCEU_VSUniDraw
                0x00021acc                FCEU_VSUniCheck
                0x00021dcc                FCEU_VSUniPower
                0x00021884                FCEUI_VSUniGetDIPs
                0x00021868                FCEU_VSUniToggleDIP
                0x000218fc                FCEU_VSUniCoin
                0x00021f7c                FCEUI_VSUniSetDIP
                0x0002184c                FCEUI_VSUniToggleDIPView
 .text          0x00021fac     0x110c palette.o
                0x00022a58                FCEUI_NTSCDEC
                0x00022cd4                FCEUI_SetPaletteArray
                0x00022b24                FCEU_ResetPalette
                0x00022038                FCEUI_NTSCSELTINT
                0x00021fd0                FCEUI_NTSCSELHUE
                0x000221e8                SetNESDeemph
                0x00021fac                FCEUI_GetNTSCTH
                0x00022998                FCEUI_NTSCINC
                0x0002234c                FCEU_LoadGamePalette
                0x00022ef0                FCEUI_SetNTSCTH
                0x000220a0                FCEU_DrawNTSCControlBars
 .text          0x000230b8      0x120 mappers/113.o
                0x000230b8                Mapper113_init
                0x0002313c                Mapper113_writeh
                0x00023108                Mapper113_write
 .text          0x000231d8      0x260 mappers/15.o
                0x000233a4                Mapper15_init
 .text          0x00023438       0x90 mappers/151.o
                0x00023464                Mapper151_write
                0x00023438                Mapper151_init
 .text          0x000234c8      0xd50 mappers/16.o
                0x00023dd4                Mapper16_init
                0x00023d94                Mapper153_init
                0x00023e14                Mapper157_init
                0x00023530                FCEUI_DatachSet
 .text          0x00024218      0x2a4 mappers/17.o
                0x00024270                Mapper17_init
                0x000242b4                Mapper17_write
 .text          0x000244bc      0x2bc mappers/18.o
                0x00024564                Mapper18_write
                0x000244bc                JalecoIRQHook
                0x00024524                Mapper18_init
 .text          0x00024778       0x48 mappers/180.o
                0x00024778                Mapper180_init
                0x000247a4                Mapper180_write
 .text          0x000247c0       0x50 mappers/184.o
                0x000247ec                Mapper184_write
                0x000247c0                Mapper184_init
 .text          0x00024810       0xbc mappers/193.o
                0x00024810                Mapper193_init
 .text          0x000248cc       0x74 mappers/200.o
                0x000248cc                Mapper200_init
 .text          0x00024940       0x84 mappers/201.o
                0x00024988                Mapper201_init
 .text          0x000249c4       0x9c mappers/202.o
                0x000249c4                Mapper202_init
 .text          0x00024a60       0x8c mappers/203.o
                0x00024aa0                Mapper203_init
 .text          0x00024aec       0xa8 mappers/204.o
                0x00024aec                Mapper204_init
 .text          0x00024b94      0x398 mappers/21.o
                0x00024c8c                Mapper21_write
                0x00024c4c                Mapper21_init
 .text          0x00024f2c       0x9c mappers/212.o
                0x00024f2c                Mapper212_init
 .text          0x00024fc8       0x64 mappers/213.o
                0x00024ff0                Mapper213_init
 .text          0x0002502c       0x8c mappers/214.o
                0x0002506c                Mapper214_init
 .text          0x000250b8      0x124 mappers/22.o
                0x000250e4                Mapper22_write
                0x000250b8                Mapper22_init
 .text          0x000251dc      0x1fc mappers/225.o
                0x000252dc                Mapper225_init
                0x00025258                A110in1regwr
                0x000251dc                A110in1read
                0x00025330                Mapper225_write
 .text          0x000253d8      0x2a4 mappers/226.o
                0x000253d8                Mapper226_init
 .text          0x0002567c      0x1b4 mappers/227.o
                0x000257b4                Mapper227_init
 .text          0x00025830      0x120 mappers/228.o
                0x000258e8                Mapper228_init
 .text          0x00025950       0x9c mappers/229.o
                0x0002597c                Mapper229_write
                0x00025950                Mapper229_init
 .text          0x000259ec      0x398 mappers/23.o
                0x000259ec                KonamiIRQHook2
                0x00025aa0                Mapper23_init
 .text          0x00025d84      0x174 mappers/230.o
                0x00025d84                Mapper230_init
                0x00025e88                Mapper230_Reset
 .text          0x00025ef8       0x9c mappers/231.o
                0x00025ef8                Mapper231_init
 .text          0x00025f94      0x164 mappers/232.o
                0x00026080                Mapper232_write
                0x00025f94                Mapper232_init
 .text          0x000260f8      0x4a4 mappers/234.o
                0x00026458                R2W
                0x0002621c                R1W
                0x00026358                R2R
                0x000264e0                R1R
                0x000260f8                Mapper234_init
 .text          0x0002659c       0x68 mappers/240.o
                0x0002659c                Mapper240_init
                0x000265dc                Mapper240_write
 .text          0x00026604       0x90 mappers/241.o
                0x0002662c                Mapper241_init
 .text          0x00026694       0x9c mappers/242.o
                0x00026694                Mapper242_init
                0x000266c8                Mapper242_write
 .text          0x00026730       0x9c mappers/244.o
                0x00026754                Mapper244_init
 .text          0x000267cc       0xec mappers/246.o
                0x0002680c                Mapper246_write
                0x000267cc                Mapper246_init
 .text          0x000268b8     0x1160 mappers/24and26.o
                0x00027748                Mapper26_init
                0x000272e8                VRC6Sound
                0x00027940                NSFVRC6_Init
                0x00027844                Mapper24_init
 .text          0x00027a18      0x350 mappers/25.o
                0x00027acc                Mapper25_init
 .text          0x00027d68      0x130 mappers/255.o
                0x00027d94                Mapper255_init
 .text          0x00027e98      0x314 mappers/27.o
                0x00027ef0                Mapper27_init
 .text          0x000281ac      0x174 mappers/32.o
                0x000281ac                Mapper32_init
 .text          0x00028320      0x260 mappers/33.o
                0x000283cc                Mapper33_init
                0x0002836c                Mapper48_init
 .text          0x00028580      0x148 mappers/40.o
                0x0002864c                Mapper40_init
 .text          0x000286c8      0x124 mappers/41.o
                0x00028748                Mapper41_write
                0x000286f0                Mapper41_init
 .text          0x000287ec      0x1f4 mappers/42.o
                0x00028894                Mapper42_init
 .text          0x000289e0      0x1c0 mappers/43.o
                0x00028aec                Mapper43_init
 .text          0x00028ba0      0x104 mappers/46.o
                0x00028c4c                Mapper46_writel
                0x00028bf4                Mapper46_write
                0x00028ba0                Mapper46_init
 .text          0x00028ca4      0x1e0 mappers/50.o
                0x00028cf0                Mapper50_init
 .text          0x00028e84      0x2a8 mappers/51.o
                0x00028fdc                Mapper51_init
 .text          0x0002912c       0xc0 mappers/59.o
                0x0002912c                Mapper59_init
 .text          0x000291ec      0x534 mappers/6.o
                0x00029244                Mapper6_StateRestore
                0x000294f0                Mapper6_write
                0x0002947c                Mapper6_init
 .text          0x00029720       0x94 mappers/60.o
                0x00029720                Mapper60_init
 .text          0x000297b4       0xb0 mappers/61.o
                0x000297b4                Mapper61_init
 .text          0x00029864       0xa4 mappers/62.o
                0x00029864                Mapper62_init
 .text          0x00029908      0x24c mappers/65.o
                0x0002996c                Mapper65_init
                0x00029908                IREMIRQHook
 .text          0x00029b54      0x1f8 mappers/67.o
                0x00029bbc                Mapper67_init
 .text          0x00029d4c      0x614 mappers/68.o
                0x00029f4c                Mapper68_write
                0x00029d4c                Mapper68_init
 .text          0x0002a360      0xef8 mappers/69.o
                0x0002a480                Mapper69_StateRestore
                0x0002a698                Mapper69_ESI
                0x0002a71c                NSFAY_Init
                0x0002a7dc                Mapper69_init
 .text          0x0002b258       0x90 mappers/71.o
                0x0002b258                Mapper71_init
                0x0002b288                Mapper71_write
 .text          0x0002b2e8       0x74 mappers/72.o
                0x0002b2e8                Mapper72_init
                0x0002b314                Mapper72_write
 .text          0x0002b35c      0x1b4 mappers/73.o
                0x0002b3c8                Mapper73_init
 .text          0x0002b510      0x134 mappers/75.o
                0x0002b510                Mapper75_init
                0x0002b53c                Mapper75_write
 .text          0x0002b644      0x110 mappers/76.o
                0x0002b644                Mapper76_init
 .text          0x0002b754      0x164 mappers/77.o
                0x0002b754                Mapper77_init
 .text          0x0002b8b8       0x84 mappers/79.o
                0x0002b8b8                Mapper79_init
                0x0002b900                Mapper79_write
 .text          0x0002b93c       0x58 mappers/8.o
                0x0002b93c                Mapper8_init
 .text          0x0002b994      0x61c mappers/80.o
                0x0002b9fc                Mapper80_init
                0x0002ba50                Mapper207_init
 .text          0x0002bfb0      0x2b0 mappers/82.o
                0x0002bfb0                Mapper82_init
 .text          0x0002c260      0x8b0 mappers/83.o
                0x0002c2f0                Mapper83_init
 .text          0x0002cb10      0x858 mappers/85.o
                0x0002ccbc                Mapper85_StateRestore
                0x0002cf98                DoVRC7Sound
                0x0002cbc4                NSFVRC7_Init
                0x0002ced4                UpdateOPL
                0x0002d01c                Mapper85_write
                0x0002d294                Mapper85_init
                0x0002cf64                UpdateOPLNEO
 .text          0x0002d368       0x74 mappers/86.o
                0x0002d3a8                Mapper86_write
                0x0002d368                Mapper86_init
 .text          0x0002d3dc       0x80 mappers/89.o
                0x0002d3dc                Mapper89_init
                0x0002d418                Mapper89_write
 .text          0x0002d45c      0x160 mappers/91.o
                0x0002d4a8                Mapper91_init
 .text          0x0002d5bc       0x9c mappers/92.o
                0x0002d5bc                Mapper92_init
 .text          0x0002d658       0x78 mappers/97.o
                0x0002d690                Mapper97_write
                0x0002d658                Mapper97_init
 .text          0x0002d6d0       0x94 mappers/99.o
                0x0002d6d0                Mapper99_init
 .text          0x0002d764     0x7628 mappers/emu2413.o
                0x000328ac                OPLL_new
                0x00032e6c                OPLL_set_quality
                0x0002fb60                OPLL_setMask
                0x0002fb1c                OPLL_set_rate
                0x00032ea8                moocow
                0x000338f4                OPLL_calc
                0x000323f8                OPLL_reset
                0x0002ec28                OPLL_forceRefresh
                0x0002fd1c                OPLL_writeReg
                0x00032880                OPLL_writeIO
                0x0002fb78                OPLL_toggleMask
                0x00032894                OPLL_delete
 .text          0x00034d8c      0x368 mappers/mmc2and4.o
                0x00034d8c                Mapper10_init
                0x00034f08                Mapper9_init
                0x00034fb0                Mapper9and10_write
                0x00034f94                Mapper9_write
                0x000350d8                Mapper10_write
 .text          0x000350f4      0x368 mappers/simple.o
                0x00035364                Mapper96_init
                0x000352c4                Mapper34_init
                0x000350f4                Mapper156_init
 .text          0x0003545c      0x26c boards/112.o
                0x0003545c                Mapper112_Init
 .text          0x000356c8      0x49c boards/117.o
                0x00035720                Mapper117_Init
 .text          0x00035b64      0x3ec boards/164.o
                0x00035b84                Mapper163_Init
                0x00035bdc                Mapper164_Init
 .text          0x00035f50      0x524 boards/183.o
                0x00035fa8                Mapper183_Init
 .text          0x00036474      0x2d4 boards/185.o
                0x000364d0                Mapper181_Init
                0x00036578                Mapper185_Init
 .text          0x00036748      0x2a4 boards/186.o
                0x000367a0                Mapper186_Init
 .text          0x000369ec      0x2cc boards/187.o
                0x00036a0c                Mapper187_Init
 .text          0x00036cb8      0x114 boards/189.o
                0x00036cb8                Mapper189_Init
 .text          0x00036dcc      0x1a8 boards/208.o
                0x00036e20                Mapper208_Init
 .text          0x00036f74      0x394 boards/222.o
                0x00036fc8                Mapper222_Init
 .text          0x00037308      0x168 boards/235.o
                0x00037308                Mapper235_Init
 .text          0x00037470      0x1d8 boards/57.o
                0x00037480                Mapper57_Init
 .text          0x00037648      0x270 boards/8157.o
                0x00037648                UNL8157_Init
 .text          0x000378b8      0x2d4 boards/8237.o
                0x000378b8                UNL8237_Init
 .text          0x00037b8c      0x25c boards/88.o
                0x00037be0                Mapper88_Init
                0x00037b8c                Mapper154_Init
 .text          0x00037de8     0x1790 boards/90.o
                0x00038094                Mapper90_Init
                0x0003916c                CPUWrap
                0x00038008                Mapper209_Init
                0x00037f8c                Mapper211_Init
 .text          0x00039578      0x354 boards/95.o
                0x00039578                Mapper95_Init
 .text          0x000398cc      0x2f0 boards/bmc13in1jy110.o
                0x000398cc                BMC13in1JY110_Init
 .text          0x00039bbc      0x1ac boards/bmc42in1r.o
                0x00039bbc                BMC42in1r_Init
 .text          0x00039d68      0x1b0 boards/bmc64in1nr.o
                0x00039d68                BMC64in1nr_Init
 .text          0x00039f18      0x2f8 boards/bmc70in1.o
                0x00039f6c                BMC70in1_Init
                0x00039f18                BMC70in1B_Init
 .text          0x0003a210      0x13c boards/bmcgk192.o
                0x0003a210                Mapper58_Init
 .text          0x0003a34c      0x2cc boards/bonza.o
                0x0003a4bc                Mapper216_Init
 .text          0x0003a618      0x108 boards/cc21.o
                0x0003a618                UNLCC21_Init
 .text          0x0003a720      0xd58 boards/datalatch.o
                0x0003a77c                NROM_Init
                0x0003b088                Mapper140_Init
                0x0003b118                MHROM_Init
                0x0003ae4c                UNROM_Init
                0x0003ac9c                Mapper107_Init
                0x0003ad2c                Mapper94_Init
                0x0003b3e8                CNROM_Init
                0x0003ac0c                CPROM_Init
                0x0003b2c8                Mapper70_Init
                0x0003aedc                Mapper144_Init
                0x0003b000                Mapper87_Init
                0x0003adbc                SUNSOFT_UNROM_Init
                0x0003b238                Mapper152_Init
                0x0003af70                Mapper11_Init
                0x0003ab14                Latch_Init
                0x0003b1a8                Mapper78_Init
                0x0003b358                ANROM_Init
 .text          0x0003b478      0x294 boards/deirom.o
                0x0003b478                DEIROM_Init
 .text          0x0003b70c      0x124 boards/dream.o
                0x0003b70c                DreamTech01_Init
 .text          0x0003b830      0x360 boards/fk23c.o
                0x0003b830                BMCFK23C_Init
 .text          0x0003bb90      0x244 boards/h2288.o
                0x0003bbc0                UNLH2288_Init
 .text          0x0003bdd4      0x1a0 boards/karaoke.o
                0x0003bddc                Mapper188_Init
 .text          0x0003bf74      0x138 boards/kof97.o
                0x0003bf74                UNLKOF97_Init
 .text          0x0003c0ac      0x300 boards/konami-qtai.o
                0x0003c100                Mapper190_Init
 .text          0x0003c3ac       0xd0 boards/malee.o
                0x0003c3ac                MALEE_Init
 .text          0x0003c47c      0xee4 boards/mmc1.o
                0x0003c79c                SNROM_Init
                0x0003c8d0                SGROM_Init
                0x0003c7c8                SHROM_Init
                0x0003c878                SLROM_Init
                0x0003c7f4                SFROM_Init
                0x0003c954                SBROM_Init
                0x0003c9ac                Mapper155_Init
                0x0003c9e8                Mapper105_Init
                0x0003c84c                SL1ROM_Init
                0x0003c8fc                SEROM_Init
                0x0003c770                SOROM_Init
                0x0003c820                SL2ROM_Init
                0x0003c980                SAROM_Init
                0x0003c928                SCROM_Init
                0x0003ce48                Mapper1_Init
                0x0003c8a4                SKROM_Init
 .text          0x0003d360     0x412c boards/mmc3.o
                0x0003e364                Mapper194_Init
                0x0003df08                TSROM_Init
                0x0003e0a4                Mapper249_Init
                0x0003e730                Mapper116_Init
                0x0003f9b4                MMC3_CMDWrite
                0x0003eb90                Mapper44_Init
                0x0003e124                Mapper245_Init
                0x0003d6b8                GenMMC3Restore
                0x0003d408                FixMMC3CHR
                0x00040a1c                GenMMC3Power
                0x0003e9f8                Mapper49_Init
                0x0003df60                TKROM_Init
                0x0003e010                Mapper254_Init
                0x0003ec10                Mapper37_Init
                0x0003d568                MMC3_IRQWrite
                0x0003e3f8                Mapper192_Init
                0x0003e848                Mapper114_Init
                0x0003e96c                Mapper52_Init
                0x0003e6ac                Mapper118_Init
                0x0003f5e4                Mapper198_Init
                0x0003e630                Mapper119_Init
                0x0003e8d8                Mapper74_Init
                0x0003eb04                Mapper45_Init
                0x0003dfe4                TEROM_Init
                0x0003d4dc                MMC3RegReset
                0x0003e48c                Mapper191_Init
                0x0003dd58                HKROM_Init
                0x0003df8c                TGROM_Init
                0x0003e068                Mapper250_Init
                0x0003e55c                Mapper165_Init
                0x0003dfb8                TFROM_Init
                0x0003df34                TLROM_Init
                0x0003e520                Mapper182_Init
                0x0003ea84                Mapper47_Init
                0x0003dd84                TQROM_Init
                0x0003e240                Mapper215_Init
                0x0003de00                TKSROM_Init
                0x0003ec98                Mapper12_Init
                0x0003e7c8                Mapper115_Init
                0x0003f50c                Mapper199_Init
                0x0003db58                GenMMC3_Init
                0x0003e1a4                Mapper217_Init
                0x0003e2dc                Mapper205_Init
                0x0003d360                FixMMC3PRG
                0x0003f930                Mapper4_Init
                0x0003de84                TLSROM_Init
 .text          0x0004148c     0x2b30 boards/mmc5.o
                0x00043a60                EWROM_Init
                0x0004161c                MMC5_hb
                0x00041aac                Mapper5_ESI
                0x00041a88                NSFMMC5_Close
                0x00043d50                MMC5RunSound
                0x00043a84                Mapper5_Init
                0x00042a7c                MMC5Synco
                0x00043bdc                NSFMMC5_Init
                0x00041b3c                DetectMMC5WRAMSize
                0x00042f98                MMC5_StateRestore
                0x00043a54                EKROM_Init
                0x00043a6c                ELROM_Init
                0x00043a78                ETROM_Init
 .text          0x00043fbc     0x1d48 boards/n106.o
                0x000444b0                Mapper19_ESI
                0x00044b3c                Mapper19_Init
                0x00044458                Mapper210_Init
                0x00044cf4                NSFN106_Init
 .text          0x00045d04      0x100 boards/novel.o
                0x00045d04                Novel_Init
 .text          0x00045e04     0x1190 boards/sachen.o
                0x0004627c                S8259B_Init
                0x00046194                S8259D_Init
                0x00046364                S74LS374NA_Init
                0x00045f80                TCU01_Init
                0x00046080                SA72008_Init
                0x00046024                SA0036_Init
                0x00045f0c                TCA01_Init
                0x000460dc                SA72007_Init
                0x000463c8                S74LS374N_Init
                0x00046138                SA0161M_Init
                0x00046208                S8259C_Init
                0x000462f0                S8259A_Init
                0x00045fc8                SA0037_Init
 .text          0x00046f94      0x204 boards/sheroes.o
                0x00046fa4                UNLSHeroes_Init
 .text          0x00047198      0x8f4 boards/sl1632.o
                0x0004729c                UNLSL1632_Init
 .text          0x00047a8c      0x144 boards/sonic5.o
                0x00047a8c                UNLSonic_Init
 .text          0x00047bd0      0x210 boards/subor.o
                0x00047cc8                Mapper167_init
                0x00047d44                Mapper166_init
 .text          0x00047de0      0x2bc boards/super24.o
                0x00047de0                Super24_Init
 .text          0x0004809c      0x1c8 boards/supervision.o
                0x0004809c                Supervision16_Init
 .text          0x00048264      0x28c boards/t-262.o
                0x00048264                BMCT262_Init
 .text          0x000484f0      0x73c boards/tengen.o
                0x000487c0                Mapper158_init
                0x00048b2c                Mapper64_init
 .text          0x00048c2c       0xc4 boards/__dummy_mapper.o
                0x00048c50                MapperNNN_Init
 .text          0x00048cf0      0x5f0 input/cursor.o
                0x00049124                FCEU_DrawCursor
                0x00048cf0                FCEU_DrawGunSight
 .text          0x000492e0      0x510 input/zapper.o
                0x00049580                FCEU_InitZapper
 .text          0x000497f0      0x2e0 input/powerpad.o
                0x00049a98                FCEU_InitPowerpadA
                0x00049864                UpdatePP
                0x00049a60                FCEU_InitPowerpadB
 .text          0x00049ad0      0x1f0 input/arkanoid.o
                0x00049c44                FCEU_InitArkanoid
                0x00049b40                FCEU_InitArkanoidFC
 .text          0x00049cc0      0x3bc input/shadow.o
                0x00049f44                FCEU_InitSpaceShadow
 .text          0x0004a07c      0x1ac input/fkb.o
                0x0004a1b4                FCEU_InitFKB
 .text          0x0004a228       0x78 input/hypershot.o
                0x0004a278                FCEU_InitHS
 .text          0x0004a2a0       0xe8 input/mahjong.o
                0x0004a360                FCEU_InitMahjong
 .text          0x0004a388      0x298 input/oekakids.o
                0x0004a5bc                FCEU_InitOekaKids
 .text          0x0004a620      0x180 input/ftrainer.o
                0x0004a730                FCEU_InitFamilyTrainerA
                0x0004a768                FCEU_InitFamilyTrainerB
 .text          0x0004a7a0       0xc0 input/quiz.o
                0x0004a838                FCEU_InitQuizKing
 .text          0x0004a860       0x98 input/toprider.o
                0x0004a8ec                FCEU_InitTopRider
 .text          0x0004a8f8      0x1a8 input/bworld.o
                0x0004aa1c                FCEU_InitBarcodeWorld
 .text          0x0004aaa0      0x1b0 input/suborkb.o
                0x0004abdc                FCEU_InitSuborKB
 .text          0x0004ac50      0xf6c drivers/LF1000/minimal.o
                0x0004b06c                gp2x_sound_sync
                0x0004b5c4                gp2x_init
                0x0004b550                gp2x_memcpy_all_buffers
                0x0004ae10                gp2x_video_RGB_setscaling
                0x0004ac50                gp2x_video_flip
                0x0004acec                gp2x_video_flip2
                0x0004b97c                gp2x_deinit
                0x0004b474                gp2x_memcpy_buffers
                0x0004b0cc                gp2x_start_sound
                0x0004afcc                gp2x_video_set_offs
                0x0004afdc                gp2x_video_wait_vsync
                0x0004ad74                gp2x_video_changemode2
                0x0004b010                gp2x_sound_volume
                0x0004b09c                gp2x_sound_write
                0x0004adc0                gp2x_video_setpalette
                0x0004b404                gp2x_memset_all_buffers
                0x0004b854                gp2x_video_changemode
                0x0004b524                gp2x_video_flush_cache
                0x0004b30c                gp2x_joystick_read
 .text          0x0004bbbc      0x588 drivers/LF1000/cpuctrl.o
                0x0004bca4                set_display_clock_div
                0x0004be24                set_gamma
                0x0004bf8c                set_LCD_custom_rate
                0x0004bd60                set_DCLK_Div
                0x0004bd2c                set_920_Div
                0x0004bcdc                set_FCLK
                0x0004bd94                set_RAM_Timings
                0x0004bbbc                cpuctrl_init
                0x0004c040                cpuctrl_deinit
                0x0004bef8                unset_LCD_custom_rate
 .text          0x0004c144      0x148 drivers/LF1000/squidgehack.o
                0x0004c144                mmuunhack
                0x0004c190                mmuhack
 .text          0x0004c28c      0x2bc drivers/LF1000/asmutils.o
                0x0004c4d0                convert2RGB555
                0x0004c28c                flushcache
                0x0004c354                spend_cycles
                0x0004c368                memset32
                0x0004c294                block_or
                0x0004c3a4                soft_scale
                0x0004c2cc                block_and
                0x0004c304                block_andor
 .text          0x0004c548      0x384 drivers/LF1000/gp2x.o
                0x0004c8a8                GetBaseDirectory
                0x0004c54c                gp2x_opt_update
                0x0004c548                DoDriverArgs
                0x0004c740                main
                0x0004c664                gp2x_opt_setup
 .text          0x0004c8cc     0x1b44 drivers/LF1000/main.o
                0x0004c930                SaveConfig
                0x0004ca3c                LoadCPalette
                0x0004d930                FCEUD_Update
                0x0004cbe0                CLImain
                0x0004c8cc                ShowUsage
                0x0004c918                FCEUD_PrintError
 .text          0x0004e410      0x30c drivers/LF1000/throttle.o
                0x0004e410                RefreshThrottleFPS
                0x0004e4b4                SpeedThrottle
 .text          0x0004e71c       0x1c drivers/LF1000/unix-netplay.o
                0x0004e734                FCEUD_NetworkClose
                0x0004e71c                FCEUD_NetworkConnect
                0x0004e72c                FCEUD_NetworkSendData
                0x0004e724                FCEUD_NetworkRecvData
 .text          0x0004e738       0x84 drivers/LF1000/gp2x-sound.o
                0x0004e738                SilenceSound
                0x0004e764                InitSound
                0x0004e754                GetWriteSound
                0x0004e74c                GetMaxSound
                0x0004e75c                KillSound
                0x0004e7a0                WriteSound
 .text          0x0004e7bc      0x6cc drivers/LF1000/gp2x-video.o
                0x0004ea60                InitVideo
                0x0004e9f8                FCEUD_SetPalette
                0x0004e7bc                KillVideo
                0x0004e7c0                FCEUD_GetPalette
                0x0004eb18                BlitPrepare
                0x0004e824                CleanSurface
                0x0004e7ec                BlitScreen
 .text          0x0004ee88      0x8d8 drivers/LF1000/usbjoy.o
                0x0004ee88                joy_name
                0x0004f5f4                gp2x_usbjoy_update
                0x0004f58c                gp2x_usbjoy_deinit
                0x0004ef50                joy_update
                0x0004ee9c                joy_device
                0x0004eec4                joy_axes
                0x0004f20c                gp2x_usbjoy_check2
                0x0004ef00                joy_getaxe
                0x0004eeb0                joy_buttons
                0x0004f094                joy_open
                0x0004ef24                joy_close
                0x0004f450                gp2x_usbjoy_check
                0x0004f2b8                gp2x_usbjoy_init
                0x0004eed8                joy_getbutton
 .text          0x0004f760     0x4ca4 drivers/LF1000/menu.o
                0x0004fb90                gp2x_text_out15
                0x0004fd94                gp2x_text_out15_lim
                0x00054270                gp2x_menu_do
                0x00050d7c                patches_menu_loop
 .text          0x00054404      0x1c8 drivers/LF1000/readpng.o
                0x00054404                readpng
 .text          0x000545cc     0x140c drivers/common/cheat.o
                0x00054910                EndListShow
                0x00054724                DoConsoleCheatConfig
                0x00054828                AddToList
                0x000545cc                BeginListShow
                0x00054730                ListChoice
 .text          0x000559d8      0x59c drivers/common/config.o
                0x00055ef4                LoadFCEUConfig
                0x00055c40                SaveFCEUConfig
 .text          0x00055f74      0x210 drivers/common/args.o
                0x0005611c                ParseArguments
 .text          0x00056184      0x58c drivers/common/vidblit.o
                0x00056364                Blit8To8
                0x0005664c                KillBlitToHigh
                0x00056184                SetPaletteBlitToHigh
                0x00056670                InitBlitToHigh
                0x000564cc                Blit8ToHigh
 .text          0x00056710     0x223c zlib/unzip.o
                0x0005699c                unzReadCurrentFile
                0x000581d4                unzLocateFile
                0x00058128                unzGoToFirstFile
                0x00056e70                unzOpenCurrentFile
                0x00056710                unzGetGlobalInfo
                0x00056828                unzGetLocalExtrafield
                0x00058190                unzGetCurrentFileInfo
                0x00058078                unzGoToNextFile
                0x000568d0                unzCloseCurrentFile
                0x00056758                unzeof
                0x00056788                unzGetGlobalComment
                0x00056734                unztell
                0x00056ba8                unzStringFileNameCompare
                0x00056dc0                unzClose
                0x000583e0                unzOpen
 .text          0x0005894c      0x990 ppu.o
                0x00058968                FetchSpriteData
                0x0005894c                FCEUI_DisableSpriteLimitation
                0x00058d74                RefreshSprites
                0x000591f0                CopySprites
 .text          0x000592dc      0x8c8 movie.o
                0x0005931c                FCEUMOV_AddJoy
                0x000592dc                FCEUMOV_IsPlaying
                0x0005930c                FCEUI_IsMovieActive
                0x000592f0                FCEUMOV_IsRecording
                0x000595f4                FCEUI_StopMovie
                0x00059670                FCEUI_LoadMovie
 .text          0x00059ba4      0x148 fceu098.o
                0x00059bc0                FCEUI_Emulate098
                0x00059ba4                ResetNES098
                0x00059cd0                FCEUI_Initialize098
 .text          0x00059cec     0x4d50 ppu098.o
                0x0005b76c                FCEUPPU_LineUpdate098
                0x0005d884                FCEUPPU_Loop
                0x0005b8c0                FCEUPPU_Power
                0x0005a160                FCEUPPU_Reset
                0x00059fb8                FCEUPPU_Init
                0x00059f18                FCEUI_SetRenderDisable
 *fill*         0x0005ea3c        0x4 00000000
 .text          0x0005ea40     0x6810 ncpu.o
                0x00065134                TriggerNMI_a
                0x00064ef4                X6502_Reset_a
                0x00065100                TriggerIRQ_a
                0x00065104                X6502_IRQBegin_a
                0x0006511c                X6502_IRQEnd_a
                0x0006506c                X6502_Run_a
                0x00064ef4                reset_cpu
                0x00065174                X6502_Rebase_a
                0x0006513c                X6502_AddCycles_a
                0x0006506c                cpu_exec
                0x000650d0                X6502_Power_a
 .text          0x00065250      0x4e8 /opt/RidgeRun/arm-eabi-uclibc/lib/gcc/arm-linux-uclibcgnueabi/4.1.1/../../../../arm-linux-uclibcgnueabi/lib/libm.a(s_atan.o)
                0x00065250                __GI_atan
                0x00065250                atan
 .text          0x00065738       0xec /opt/RidgeRun/arm-eabi-uclibc/lib/gcc/arm-linux-uclibcgnueabi/4.1.1/../../../../arm-linux-uclibcgnueabi/lib/libm.a(s_cos.o)
                0x00065738                __GI_cos
                0x00065738                cos
 .text          0x00065824       0x10 /opt/RidgeRun/arm-eabi-uclibc/lib/gcc/arm-linux-uclibcgnueabi/4.1.1/../../../../arm-linux-uclibcgnueabi/lib/libm.a(s_fabs.o)
                0x00065824                fabs
                0x00065824                __GI_fabs
 .text          0x00065834       0xf4 /opt/RidgeRun/arm-eabi-uclibc/lib/gcc/arm-linux-uclibcgnueabi/4.1.1/../../../../arm-linux-uclibcgnueabi/lib/libm.a(s_sin.o)
                0x00065834                sin
                0x00065834                __GI_sin
 .text          0x00065928        0x4 /opt/RidgeRun/arm-eabi-uclibc/lib/gcc/arm-linux-uclibcgnueabi/4.1.1/../../../../arm-linux-uclibcgnueabi/lib/libm.a(w_log.o)
                0x00065928                log
                0x00065928                __GI_log
 .text          0x0006592c        0x4 /opt/RidgeRun/arm-eabi-uclibc/lib/gcc/arm-linux-uclibcgnueabi/4.1.1/../../../../arm-linux-uclibcgnueabi/lib/libm.a(w_log10.o)
                0x0006592c                log10
                0x0006592c                __GI_log10
 .text          0x00065930        0x4 /opt/RidgeRun/arm-eabi-uclibc/lib/gcc/arm-linux-uclibcgnueabi/4.1.1/../../../../arm-linux-uclibcgnueabi/lib/libm.a(w_pow.o)
                0x00065930                pow
                0x00065930                __GI_pow
 .text          0x00065934        0x4 /opt/RidgeRun/arm-eabi-uclibc/lib/gcc/arm-linux-uclibcgnueabi/4.1.1/../../../../arm-linux-uclibcgnueabi/lib/libm.a(w_sqrt.o)
                0x00065934                sqrt
                0x00065934                __GI_sqrt
 .text          0x00065938      0x5d8 /opt/RidgeRun/arm-eabi-uclibc/lib/gcc/arm-linux-uclibcgnueabi/4.1.1/../../../../arm-linux-uclibcgnueabi/lib/libm.a(e_log.o)
                0x00065938                __ieee754_log
 .text          0x00065f10      0x184 /opt/RidgeRun/arm-eabi-uclibc/lib/gcc/arm-linux-uclibcgnueabi/4.1.1/../../../../arm-linux-uclibcgnueabi/lib/libm.a(e_log10.o)
                0x00065f10                __ieee754_log10
 .text          0x00066094      0xfe4 /opt/RidgeRun/arm-eabi-uclibc/lib/gcc/arm-linux-uclibcgnueabi/4.1.1/../../../../arm-linux-uclibcgnueabi/lib/libm.a(e_pow.o)
                0x00066094                __ieee754_pow
 .text          0x00067078      0x634 /opt/RidgeRun/arm-eabi-uclibc/lib/gcc/arm-linux-uclibcgnueabi/4.1.1/../../../../arm-linux-uclibcgnueabi/lib/libm.a(e_rem_pio2.o)
                0x00067078                __ieee754_rem_pio2
 .text          0x000676ac      0x23c /opt/RidgeRun/arm-eabi-uclibc/lib/gcc/arm-linux-uclibcgnueabi/4.1.1/../../../../arm-linux-uclibcgnueabi/lib/libm.a(e_sqrt.o)
                0x000676ac                __ieee754_sqrt
 .text          0x000678e8      0x2b4 /opt/RidgeRun/arm-eabi-uclibc/lib/gcc/arm-linux-uclibcgnueabi/4.1.1/../../../../arm-linux-uclibcgnueabi/lib/libm.a(k_cos.o)
                0x000678e8                __kernel_cos
 .text          0x00067b9c      0xa80 /opt/RidgeRun/arm-eabi-uclibc/lib/gcc/arm-linux-uclibcgnueabi/4.1.1/../../../../arm-linux-uclibcgnueabi/lib/libm.a(k_rem_pio2.o)
                0x00067b9c                __kernel_rem_pio2
 .text          0x0006861c      0x230 /opt/RidgeRun/arm-eabi-uclibc/lib/gcc/arm-linux-uclibcgnueabi/4.1.1/../../../../arm-linux-uclibcgnueabi/lib/libm.a(k_sin.o)
                0x0006861c                __kernel_sin
 .text          0x0006884c      0x194 /opt/RidgeRun/arm-eabi-uclibc/lib/gcc/arm-linux-uclibcgnueabi/4.1.1/../../../../arm-linux-uclibcgnueabi/lib/libm.a(s_floor.o)
                0x0006884c                __GI_floor
                0x0006884c                floor
 .text          0x000689e0      0x17c /opt/RidgeRun/arm-eabi-uclibc/lib/gcc/arm-linux-uclibcgnueabi/4.1.1/../../../../arm-linux-uclibcgnueabi/lib/libm.a(s_scalbn.o)
                0x000689e0                __GI_scalbn
                0x000689e0                scalbn
 .text          0x00068b5c       0x24 /opt/RidgeRun/arm-eabi-uclibc/lib/gcc/arm-linux-uclibcgnueabi/4.1.1/../../../../arm-linux-uclibcgnueabi/lib/libm.a(s_copysign.o)
                0x00068b5c                __GI_copysign
                0x00068b5c                copysign
 .text          0x00068b80      0x154 /home/joe/work/opendidj/rootfs//usr/lib/libz.a(compress.o)
                0x00068b94                compress2
                0x00068b80                compressBound
                0x00068c34                compress
 .text          0x00068cd4      0x994 /home/joe/work/opendidj/rootfs//usr/lib/libz.a(crc32.o)
                0x00068ce0                crc32
                0x00069488                crc32_combine
                0x00068cd4                get_crc_table
 .text          0x00069668     0x2ec8 /home/joe/work/opendidj/rootfs//usr/lib/libz.a(deflate.o)
                0x0006b5f4                deflate
                0x000696f8                deflateTune
                0x00069668                deflateSetHeader
                0x00069e78                deflateSetDictionary
                0x00069f9c                deflateBound
                0x0006a3fc                deflateInit_
                0x0006a130                deflateInit2_
                0x00069fec                deflateReset
                0x0006969c                deflatePrime
                0x00069a70                deflateCopy
                0x0006c438                deflateParams
                0x00069740                deflateEnd
 .text          0x0006c530     0x2a40 /home/joe/work/opendidj/rootfs//usr/lib/libz.a(trees.o)
                0x0006e43c                _tr_flush_block
                0x0006d268                _tr_stored_block
                0x0006c530                _tr_init
                0x0006ccd0                _tr_tally
                0x0006d41c                _tr_align
 .text          0x0006ef70       0x38 /home/joe/work/opendidj/rootfs//usr/lib/libz.a(zutil.o)
                0x0006ef70                zlibVersion
                0x0006ef7c                zlibCompileFlags
                0x0006ef98                zcfree
                0x0006ef84                zError
                0x0006efa0                zcalloc
 .text          0x0006efa8     0x2144 /home/joe/work/opendidj/rootfs//usr/lib/libz.a(inflate.o)
                0x0006f170                inflateCopy
                0x0006f544                inflate
                0x0006f134                inflateSyncPoint
                0x0006f0f8                inflateGetHeader
                0x000710dc                inflateInit_
                0x0006f030                inflatePrime
                0x0006efa8                inflateReset
                0x00070ccc                inflateSync
                0x0006f44c                inflateSetDictionary
                0x0006f094                inflateEnd
                0x00070f7c                inflateInit2_
 .text          0x000710ec      0xa4c /home/joe/work/opendidj/rootfs//usr/lib/libz.a(inftrees.o)
                0x000710ec                inflate_table
 .text          0x00071b38      0x5e0 /home/joe/work/opendidj/rootfs//usr/lib/libz.a(inffast.o)
                0x00071b38                inflate_fast
 .text          0x00072118      0x3f0 /home/joe/work/opendidj/rootfs//usr/lib/libz.a(adler32.o)
                0x00072118                adler32
                0x00072448                adler32_combine
 .text          0x00072508      0xb00 /home/joe/work/opendidj/rootfs//usr/lib/libpng.a(libpng12_la-png.o)
                0x00072570                png_get_header_ver
                0x00072818                png_zfree
                0x00072d6c                png_zalloc
                0x0007254c                png_get_libpng_ver
                0x00072648                png_sig_cmp
                0x00072fac                png_set_sig_bytes
                0x00072e2c                png_info_destroy
                0x00072508                png_get_io_ptr
                0x000726f0                png_convert_to_rfc1123
                0x000725e4                png_handle_as_unknown
                0x000725b8                png_access_version_number
                0x00072de0                png_info_init_3
                0x00072528                png_get_copyright
                0x00072594                png_get_header_version
                0x000725cc                png_reset_zstream
                0x00072f3c                png_calculate_crc
                0x000725c4                png_mmx_support
                0x000726cc                png_check_sig
                0x00072f8c                png_reset_crc
                0x00072eec                png_create_info_struct
                0x00072e84                png_info_init
                0x00072ea8                png_destroy_info_struct
                0x0007281c                png_free_data
                0x00072d08                png_data_freer
                0x0007251c                png_init_io
 .text          0x00073008      0xa80 /home/joe/work/opendidj/rootfs//usr/lib/libpng.a(libpng12_la-pngget.o)
                0x000736f4                png_get_sBIT
                0x000732f0                png_get_cHRM_fixed
                0x000732b8                png_get_bKGD
                0x000734a0                png_get_hIST
                0x000730ec                png_get_interlace_type
                0x00073220                png_get_x_offset_pixels
                0x00073474                png_get_sPLT
                0x00073028                png_get_rowbytes
                0x00073400                png_get_iCCP
                0x00073880                png_get_rgb_to_gray_status
                0x000730d0                png_get_filter_type
                0x0007377c                png_get_tIME
                0x000731f0                png_get_y_offset_microns
                0x0007307c                png_get_image_height
                0x0007353c                png_get_pCAL
                0x00073060                png_get_image_width
                0x000738c4                png_get_asm_flagmask
                0x00073124                png_get_x_pixels_per_meter
                0x000733c8                png_get_sRGB
                0x00073280                png_get_channels
                0x000738ec                png_get_user_width_max
                0x00073250                png_get_y_offset_pixels
                0x000738a8                png_get_compression_buffer_size
                0x00073008                png_get_valid
                0x00073108                png_get_compression_type
                0x000731c0                png_get_x_offset_microns
                0x00073044                png_get_rows
                0x000734d8                png_get_oFFs
                0x00073098                png_get_bit_depth
                0x00073900                png_get_user_height_max
                0x000730b4                png_get_color_type
                0x000736a8                png_get_PLTE
                0x00073184                png_get_pixels_per_meter
                0x000735f4                png_get_sCAL_s
                0x00073914                png_get_IHDR
                0x00073394                png_get_gAMA_fixed
                0x000738e4                png_get_mmx_rowbytes_threshold
                0x0007329c                png_get_signature
                0x000738dc                png_get_mmx_bitdepth_threshold
                0x0007372c                png_get_text
                0x000737b4                png_get_tRNS
                0x00073644                png_get_pHYs
                0x000738cc                png_get_mmx_flagmask
                0x000738bc                png_get_asm_flags
                0x00073154                png_get_y_pixels_per_meter
                0x00073854                png_get_unknown_chunks
                0x00073894                png_get_user_chunk_ptr
 .text          0x00073a88     0x1f18 /home/joe/work/opendidj/rootfs//usr/lib/libpng.a(libpng12_la-pngread.o)
                0x00073a94                png_read_destroy
                0x00073a88                png_set_read_status_fn
                0x00075658                png_read_init
                0x0007597c                png_create_read_struct
                0x00075340                png_read_init_3
                0x00075104                png_read_png
                0x000743b8                png_start_read_image
                0x00075524                png_read_init_2
                0x00074a28                png_read_info
                0x00073d2c                png_destroy_read_struct
                0x000749d8                png_read_update_info
                0x000748a8                png_read_image
                0x000743d0                png_read_row
                0x00075684                png_create_read_struct_2
                0x0007490c                png_read_rows
                0x00073e0c                png_read_end
 .text          0x000759a0      0x10c /home/joe/work/opendidj/rootfs//usr/lib/libpng.a(libpng12_la-pngrio.o)
                0x000759a0                png_set_read_fn
                0x00075a74                png_read_data
                0x00075a28                png_default_read_data
 .text          0x00075aac     0x4fa0 /home/joe/work/opendidj/rootfs//usr/lib/libpng.a(libpng12_la-pngrtran.o)
                0x000769a8                png_do_read_filler
                0x0007a07c                png_set_dither
                0x00075b48                png_set_gray_1_2_4_to_8
                0x00075b9c                png_set_read_user_transform_fn
                0x00075ac0                png_set_strip_alpha
                0x00075b24                png_set_expand_gray_1_2_4_to_8
                0x00075aac                png_set_strip_16
                0x00076488                png_do_unshift
                0x000783e0                png_do_dither
                0x00076ef0                png_do_rgb_to_gray
                0x00075b80                png_set_gray_to_rgb
                0x00076d08                png_do_gray_to_rgb
                0x00079958                png_set_rgb_to_gray_fixed
                0x00079b70                png_do_read_transformations
                0x00079a7c                png_set_crc_action
                0x00075afc                png_set_palette_to_rgb
                0x0007673c                png_do_read_swap_alpha
                0x0007775c                png_do_gamma
                0x00075ad4                png_set_expand
                0x00076070                png_read_transform_info
                0x00077e74                png_do_expand
                0x00075bb4                png_init_read_transformations
                0x00075b60                png_set_tRNS_to_alpha
                0x00076890                png_do_read_invert_alpha
                0x000776b8                png_build_grayscale_palette
                0x00078564                png_do_read_intrapixel
                0x000766d8                png_do_chop
                0x00076334                png_do_unpack
                0x00077bd0                png_do_expand_palette
                0x0007867c                png_do_background
 .text          0x0007aa4c      0x238 /home/joe/work/opendidj/rootfs//usr/lib/libpng.a(libpng12_la-pngmem.o)
                0x0007ab1c                png_destroy_struct
                0x0007aa4c                png_set_mem_fn
                0x0007aa94                png_free_default
                0x0007abf4                png_create_struct_2
                0x0007aa74                png_memset_check
                0x0007ab44                png_malloc
                0x0007ac78                png_create_struct
                0x0007aae0                png_destroy_struct_2
                0x0007aa84                png_memcpy_check
                0x0007aaa8                png_free
                0x0007aa60                png_get_mem_ptr
                0x0007abbc                png_malloc_warn
                0x0007ab28                png_malloc_default
 .text          0x0007ac84      0xbf4 /home/joe/work/opendidj/rootfs//usr/lib/libpng.a(libpng12_la-pngerror.o)
                0x0007b004                png_error
                0x0007acc4                png_warning
                0x0007b644                png_chunk_warning
                0x0007acac                png_set_strip_error_numbers
                0x0007ac98                png_get_error_ptr
                0x0007b410                png_chunk_error
                0x0007ac84                png_set_error_fn
 .text          0x0007b878     0x3d54 /home/joe/work/opendidj/rootfs//usr/lib/libpng.a(libpng12_la-pngrutil.o)
                0x0007e858                png_handle_sRGB
                0x0007cc28                png_read_finish_row
                0x0007f438                png_handle_IHDR
                0x0007bc40                png_crc_error
                0x0007b8c8                png_get_uint_16
                0x0007c62c                png_check_chunk_name
                0x0007b8e4                png_get_uint_31
                0x0007bcb8                png_read_filter_row
                0x0007b92c                png_read_start_row
                0x0007dc90                png_handle_pHYs
                0x0007b878                png_get_uint_32
                0x0007f1b0                png_handle_IEND
                0x0007dd94                png_handle_hIST
                0x0007f020                png_handle_gAMA
                0x0007d510                png_handle_tIME
                0x0007e0f4                png_handle_tRNS
                0x0007f220                png_handle_PLTE
                0x0007db8c                png_handle_oFFs
                0x0007def4                png_handle_bKGD
                0x0007d630                png_handle_sCAL
                0x0007e608                png_handle_iCCP
                0x0007d17c                png_handle_zTXt
                0x0007d870                png_handle_pCAL
                0x0007cfc4                png_handle_unknown
                0x0007cb18                png_crc_read
                0x0007eeb0                png_handle_sBIT
                0x0007c338                png_combine_row
                0x0007e334                png_handle_sPLT
                0x0007cb44                png_crc_finish
                0x0007ea94                png_handle_cHRM
                0x0007c6fc                png_decompress_chunk
                0x0007beec                png_do_read_interlace
                0x0007b8a0                png_get_int_32
                0x0007d388                png_handle_tEXt
 .text          0x0007f5cc      0x808 /home/joe/work/opendidj/rootfs//usr/lib/libpng.a(libpng12_la-pngtrans.o)
                0x0007f728                png_set_add_alpha
                0x0007f968                png_do_strip_filler
                0x0007f6b4                png_set_filler
                0x0007f67c                png_set_interlace_handling
                0x0007f878                png_do_swap
                0x0007f600                png_set_packing
                0x0007f748                png_set_swap_alpha
                0x0007fdac                png_set_user_transform_info
                0x0007f5cc                png_set_bgr
                0x0007f5e0                png_set_swap
                0x0007fc7c                png_do_bgr
                0x0007f628                png_set_packswap
                0x0007f770                png_set_invert_mono
                0x0007f8bc                png_do_packswap
                0x0007f784                png_do_invert
                0x0007f75c                png_set_invert_alpha
                0x0007fdc0                png_get_user_transform_ptr
                0x0007f648                png_set_shift
 .text          0x0007fdd4     0x1550 /home/joe/work/opendidj/rootfs//usr/lib/libpng.a(libpng12_la-pngset.o)
                0x000801a4                png_set_sBIT
                0x00080384                png_set_cHRM_fixed
                0x0007fe50                png_set_unknown_chunk_location
                0x0007fea0                png_permit_mng_features
                0x00080ed0                png_set_text
                0x000802f0                png_set_gAMA_fixed
                0x000801d8                png_set_bKGD
                0x0007fdd4                png_set_oFFs
                0x00080f18                png_set_IHDR
                0x0007ffac                png_set_keep_unknown_chunks
                0x000800a4                png_set_tRNS
                0x0007fee0                png_set_asm_flags
                0x0007fef0                png_set_mmx_thresholds
                0x00080ce0                png_set_pCAL
                0x00080be0                png_set_sCAL_s
                0x00080500                png_set_unknown_chunks
                0x0008124c                png_set_PLTE
                0x0007fec4                png_set_invalid
                0x00080660                png_set_sPLT
                0x00080aa4                png_set_iCCP
                0x0007fe84                png_permit_empty_plte
                0x00080864                png_set_text_2
                0x0007ff04                png_set_compression_buffer_size
                0x0007feb4                png_set_read_user_chunk_fn
                0x0008020c                png_set_hIST
                0x0007fef4                png_set_user_limits
                0x00080464                png_set_sRGB_gAMA_and_cHRM
                0x0007fe04                png_set_pHYs
                0x0007fe34                png_set_sRGB
                0x00080160                png_set_tIME
                0x0007ff50                png_set_rows
 .text          0x00081324       0xc4 /opt/RidgeRun/arm-eabi-uclibc/lib/gcc/arm-linux-uclibcgnueabi/4.1.1/libgcc.a(_udivsi3.o)
                0x00081324                __udivsi3
                0x00081324                __aeabi_uidiv
                0x000813d0                __aeabi_uidivmod
 .text          0x000813e8       0xf4 /opt/RidgeRun/arm-eabi-uclibc/lib/gcc/arm-linux-uclibcgnueabi/4.1.1/libgcc.a(_divsi3.o)
                0x000813e8                __aeabi_idiv
                0x000813e8                __divsi3
                0x000814c4                __aeabi_idivmod
 .text          0x000814dc      0x3b8 /opt/RidgeRun/arm-eabi-uclibc/lib/gcc/arm-linux-uclibcgnueabi/4.1.1/libgcc.a(_addsubdf3.o)
                0x00081834                __floatdidf
                0x000817b8                __floatsidf
                0x00081794                __aeabi_ui2d
                0x000814dc                __aeabi_drsub
                0x000817e0                __extendsfdf2
                0x000814e8                __adddf3
                0x00081794                __floatunsidf
                0x000814e8                __aeabi_dadd
                0x00081820                __aeabi_ul2d
                0x000814e4                __aeabi_dsub
                0x00081820                __floatundidf
                0x000817b8                __aeabi_i2d
                0x00081834                __aeabi_l2d
                0x000817e0                __aeabi_f2d
                0x000814e4                __subdf3
 .text          0x00081894      0x470 /opt/RidgeRun/arm-eabi-uclibc/lib/gcc/arm-linux-uclibcgnueabi/4.1.1/libgcc.a(_muldivdf3.o)
                0x00081b00                __aeabi_ddiv
                0x00081894                __aeabi_dmul
                0x00081b00                __divdf3
                0x00081894                __muldf3
 .text          0x00081d04      0x128 /opt/RidgeRun/arm-eabi-uclibc/lib/gcc/arm-linux-uclibcgnueabi/4.1.1/libgcc.a(_cmpdf2.o)
                0x00081df0                __aeabi_dcmple
                0x00081d14                __cmpdf2
                0x00081d14                __eqdf2
                0x00081d04                __gtdf2
                0x00081db4                __aeabi_cdcmple
                0x00081d98                __aeabi_cdrcmple
                0x00081d0c                __ltdf2
                0x00081ddc                __aeabi_dcmplt
                0x00081d0c                __ledf2
                0x00081e18                __aeabi_dcmpgt
                0x00081e04                __aeabi_dcmpge
                0x00081d14                __nedf2
                0x00081dc8                __aeabi_dcmpeq
                0x00081db4                __aeabi_cdcmpeq
                0x00081d04                __gedf2
 .text          0x00081e2c       0x5c /opt/RidgeRun/arm-eabi-uclibc/lib/gcc/arm-linux-uclibcgnueabi/4.1.1/libgcc.a(_fixdfsi.o)
                0x00081e2c                __fixdfsi
                0x00081e2c                __aeabi_d2iz
 .text          0x00081e88       0x54 /opt/RidgeRun/arm-eabi-uclibc/lib/gcc/arm-linux-uclibcgnueabi/4.1.1/libgcc.a(_fixunsdfsi.o)
                0x00081e88                __fixunsdfsi
                0x00081e88                __aeabi_d2uiz
 .text          0x00081edc      0x250 /opt/RidgeRun/arm-eabi-uclibc/lib/gcc/arm-linux-uclibcgnueabi/4.1.1/libgcc.a(_addsubsf3.o)
                0x00081ee8                __aeabi_fadd
                0x00081ee4                __subsf3
                0x00082080                __aeabi_i2f
                0x00081ee4                __aeabi_fsub
                0x000820b0                __floatdisf
                0x00082080                __floatsisf
                0x000820a0                __floatundisf
                0x00082078                __aeabi_ui2f
                0x000820b0                __aeabi_l2f
                0x000820a0                __aeabi_ul2f
                0x00081edc                __aeabi_frsub
                0x00082078                __floatunsisf
                0x00081ee8                __addsf3
 .text          0x0008212c      0x2f8 /opt/RidgeRun/arm-eabi-uclibc/lib/gcc/arm-linux-uclibcgnueabi/4.1.1/libgcc.a(_muldivsf3.o)
                0x000822c4                __divsf3
                0x000822c4                __aeabi_fdiv
                0x0008212c                __mulsf3
                0x0008212c                __aeabi_fmul
 .text          0x00082424       0x1c /opt/RidgeRun/arm-eabi-uclibc/lib/gcc/arm-linux-uclibcgnueabi/4.1.1/libgcc.a(_aeabi_ldivmod.o)
                0x00082424                __aeabi_ldivmod
 .text          0x00082440       0x1c /opt/RidgeRun/arm-eabi-uclibc/lib/gcc/arm-linux-uclibcgnueabi/4.1.1/libgcc.a(_aeabi_uldivmod.o)
                0x00082440                __aeabi_uldivmod
 .text          0x0008245c       0x10 /opt/RidgeRun/arm-eabi-uclibc/lib/gcc/arm-linux-uclibcgnueabi/4.1.1/libgcc.a(_dvmd_lnx.o)
                0x0008245c                __div0
 .text          0x0008246c       0x88 /opt/RidgeRun/arm-eabi-uclibc/lib/gcc/arm-linux-uclibcgnueabi/4.1.1/libgcc.a(bpabi.o)
                0x0008246c                __gnu_uldivmod_helper
                0x000824b0                __gnu_ldivmod_helper
 .text          0x000824f4      0x56c /opt/RidgeRun/arm-eabi-uclibc/lib/gcc/arm-linux-uclibcgnueabi/4.1.1/libgcc.a(_divdi3.o)
                0x000824f4                __divdi3
 .text          0x00082a60      0x514 /opt/RidgeRun/arm-eabi-uclibc/lib/gcc/arm-linux-uclibcgnueabi/4.1.1/libgcc.a(_udivdi3.o)
                0x00082a60                __udivdi3
 .text          0x00082f74      0xb24 /opt/RidgeRun/arm-eabi-uclibc/lib/gcc/arm-linux-uclibcgnueabi/4.1.1/libgcc_eh.a(unwind-arm.o)
                0x00083898                __gnu_Unwind_RaiseException
                0x000834cc                __aeabi_unwind_cpp_pr0
                0x0008308c                _Unwind_GetCFA
                0x00082ffc                _Unwind_VRS_Set
                0x00083968                _Unwind_VRS_Pop
                0x000834bc                __aeabi_unwind_cpp_pr2
                0x00083098                _Unwind_DeleteException
                0x00083094                _Unwind_Complete
                0x00083828                __gnu_Unwind_Resume
                0x000837b0                __gnu_Unwind_ForcedUnwind
                0x00083948                __gnu_Unwind_Resume_or_Rethrow
                0x000830c4                _Unwind_GetTextRelBase
                0x00082f88                _Unwind_VRS_Get
                0x000834c4                __aeabi_unwind_cpp_pr1
                0x000830d0                _Unwind_GetDataRelBase
 .text          0x00083a98       0xb4 /opt/RidgeRun/arm-eabi-uclibc/lib/gcc/arm-linux-uclibcgnueabi/4.1.1/libgcc_eh.a(libunwind.o)
                0x00083b28                ___Unwind_ForcedUnwind
                0x00083ab4                __gnu_Unwind_Save_VFP
                0x00083b04                _Unwind_Resume_or_Rethrow
                0x00083b04                ___Unwind_Resume_or_Rethrow
                0x00083a98                __restore_core_regs
                0x00083abc                ___Unwind_RaiseException
                0x00083ae0                ___Unwind_Resume
                0x00083aac                __gnu_Unwind_Restore_VFP
                0x00083ae0                _Unwind_Resume
                0x00083abc                _Unwind_RaiseException
                0x00083a98                restore_core_regs
                0x00083b28                _Unwind_ForcedUnwind
 .text          0x00083b4c      0x4a0 /opt/RidgeRun/arm-eabi-uclibc/lib/gcc/arm-linux-uclibcgnueabi/4.1.1/libgcc_eh.a(pr-support.o)
                0x00083bf8                _Unwind_GetRegionStart
                0x00083c10                __gnu_unwind_execute
                0x00083bd4                _Unwind_GetLanguageSpecificData
                0x00083fa8                __gnu_unwind_frame
 .text          0x00083fec       0xe8 /opt/RidgeRun/arm-eabi-uclibc/lib/gcc/arm-linux-uclibcgnueabi/4.1.1/../../../../arm-linux-uclibcgnueabi/lib/libc.a(raise.o)
                0x00083fec                __raise
                0x00083fec                __GI_raise
                0x00083fec                raise
 .text          0x000840d4        0x8 /opt/RidgeRun/arm-eabi-uclibc/lib/gcc/arm-linux-uclibcgnueabi/4.1.1/../../../../arm-linux-uclibcgnueabi/lib/libc.a(bsd-_setjmp.o)
                0x000840d4                _setjmp
 *fill*         0x000840dc        0x4 00000000
 .text          0x000840e0       0x10 /opt/RidgeRun/arm-eabi-uclibc/lib/gcc/arm-linux-uclibcgnueabi/4.1.1/../../../../arm-linux-uclibcgnueabi/lib/libc.a(libc-aeabi_read_tp.o)
                0x000840e0                __aeabi_read_tp
 .text          0x000840f0       0xc8 /opt/RidgeRun/arm-eabi-uclibc/lib/gcc/arm-linux-uclibcgnueabi/4.1.1/../../../../arm-linux-uclibcgnueabi/lib/libc.a(__syscall_fcntl.o)
                0x00084138                __libc_fcntl
                0x00084138                __GI___libc_fcntl
                0x00084138                __GI_fcntl
                0x00084138                fcntl
 .text          0x000841b8       0xb4 /opt/RidgeRun/arm-eabi-uclibc/lib/gcc/arm-linux-uclibcgnueabi/4.1.1/../../../../arm-linux-uclibcgnueabi/lib/libc.a(__syscall_fcntl64.o)
                0x000841ec                __GI_fcntl64
                0x000841ec                fcntl64
                0x000841ec                __GI___libc_fcntl64
                0x000841ec                __libc_fcntl64
 .text          0x0008426c       0x34 /opt/RidgeRun/arm-eabi-uclibc/lib/gcc/arm-linux-uclibcgnueabi/4.1.1/../../../../arm-linux-uclibcgnueabi/lib/libc.a(access.o)
                0x0008426c                access
 .text          0x000842a0       0x34 /opt/RidgeRun/arm-eabi-uclibc/lib/gcc/arm-linux-uclibcgnueabi/4.1.1/../../../../arm-linux-uclibcgnueabi/lib/libc.a(chdir.o)
                0x000842a0                chdir
                0x000842a0                __GI_chdir
 .text          0x000842d4       0x88 /opt/RidgeRun/arm-eabi-uclibc/lib/gcc/arm-linux-uclibcgnueabi/4.1.1/../../../../arm-linux-uclibcgnueabi/lib/libc.a(close.o)
                0x00084308                __GI_close
                0x00084308                __libc_close
                0x00084308                close
 .text          0x0008435c       0xf8 /opt/RidgeRun/arm-eabi-uclibc/lib/gcc/arm-linux-uclibcgnueabi/4.1.1/../../../../arm-linux-uclibcgnueabi/lib/libc.a(getcwd.o)
                0x0008435c                getcwd
                0x0008435c                __GI_getcwd
 .text          0x00084454       0x18 /opt/RidgeRun/arm-eabi-uclibc/lib/gcc/arm-linux-uclibcgnueabi/4.1.1/../../../../arm-linux-uclibcgnueabi/lib/libc.a(getpagesize.o)
                0x00084454                __GI_getpagesize
                0x00084454                getpagesize
                0x00084454                __getpagesize
 .text          0x0008446c       0x34 /opt/RidgeRun/arm-eabi-uclibc/lib/gcc/arm-linux-uclibcgnueabi/4.1.1/../../../../arm-linux-uclibcgnueabi/lib/libc.a(gettimeofday.o)
                0x0008446c                gettimeofday
                0x0008446c                __GI_gettimeofday
 .text          0x000844a0       0xb4 /opt/RidgeRun/arm-eabi-uclibc/lib/gcc/arm-linux-uclibcgnueabi/4.1.1/../../../../arm-linux-uclibcgnueabi/lib/libc.a(ioctl.o)
                0x000844d4                ioctl
                0x000844d4                __GI_ioctl
 .text          0x00084554       0x40 /opt/RidgeRun/arm-eabi-uclibc/lib/gcc/arm-linux-uclibcgnueabi/4.1.1/../../../../arm-linux-uclibcgnueabi/lib/libc.a(longjmp.o)
                0x00084554                longjmp
                0x00084554                _longjmp
                0x00084554                siglongjmp
                0x00084554                __libc_longjmp
                0x00084554                __libc_siglongjmp
 .text          0x00084594       0x3c /opt/RidgeRun/arm-eabi-uclibc/lib/gcc/arm-linux-uclibcgnueabi/4.1.1/../../../../arm-linux-uclibcgnueabi/lib/libc.a(mkdir.o)
                0x00084594                mkdir
                0x00084594                __GI_mkdir
 .text          0x000845d0       0x2c /opt/RidgeRun/arm-eabi-uclibc/lib/gcc/arm-linux-uclibcgnueabi/4.1.1/../../../../arm-linux-uclibcgnueabi/lib/libc.a(mmap.o)
                0x000845d0                mmap
                0x000845d0                __GI_mmap
 .text          0x000845fc       0x34 /opt/RidgeRun/arm-eabi-uclibc/lib/gcc/arm-linux-uclibcgnueabi/4.1.1/../../../../arm-linux-uclibcgnueabi/lib/libc.a(munmap.o)
                0x000845fc                munmap
                0x000845fc                __GI_munmap
 .text          0x00084630       0xcc /opt/RidgeRun/arm-eabi-uclibc/lib/gcc/arm-linux-uclibcgnueabi/4.1.1/../../../../arm-linux-uclibcgnueabi/lib/libc.a(open.o)
                0x000846ec                creat
                0x00084664                __GI_open
                0x00084664                __libc_open
                0x00084664                __GI___libc_open
                0x000846ec                __libc_creat
                0x00084664                open
 .text          0x000846fc       0x98 /opt/RidgeRun/arm-eabi-uclibc/lib/gcc/arm-linux-uclibcgnueabi/4.1.1/../../../../arm-linux-uclibcgnueabi/lib/libc.a(read.o)
                0x00084730                __GI_read
                0x00084730                __libc_read
                0x00084730                read
 .text          0x00084794       0x6c /opt/RidgeRun/arm-eabi-uclibc/lib/gcc/arm-linux-uclibcgnueabi/4.1.1/../../../../arm-linux-uclibcgnueabi/lib/libc.a(sigprocmask.o)
                0x00084794                __GI_sigprocmask
                0x00084794                sigprocmask
 .text          0x00084800       0x68 /opt/RidgeRun/arm-eabi-uclibc/lib/gcc/arm-linux-uclibcgnueabi/4.1.1/../../../../arm-linux-uclibcgnueabi/lib/libc.a(stat.o)
                0x00084800                __GI_stat
                0x00084800                stat
 .text          0x00084868       0x30 /opt/RidgeRun/arm-eabi-uclibc/lib/gcc/arm-linux-uclibcgnueabi/4.1.1/../../../../arm-linux-uclibcgnueabi/lib/libc.a(sync.o)
                0x00084868                sync
 .text          0x00084898       0x98 /opt/RidgeRun/arm-eabi-uclibc/lib/gcc/arm-linux-uclibcgnueabi/4.1.1/../../../../arm-linux-uclibcgnueabi/lib/libc.a(write.o)
                0x000848cc                __GI_write
                0x000848cc                write
                0x000848cc                __libc_write
 .text          0x00084930      0x144 /opt/RidgeRun/arm-eabi-uclibc/lib/gcc/arm-linux-uclibcgnueabi/4.1.1/../../../../arm-linux-uclibcgnueabi/lib/libc.a(xstatconv.o)
                0x000849c4                __xstat64_conv
                0x00084930                __xstat_conv
 .text          0x00084a74       0x14 /opt/RidgeRun/arm-eabi-uclibc/lib/gcc/arm-linux-uclibcgnueabi/4.1.1/../../../../arm-linux-uclibcgnueabi/lib/libc.a(alphasort.o)
                0x00084a74                alphasort
 .text          0x00084a88       0x7c /opt/RidgeRun/arm-eabi-uclibc/lib/gcc/arm-linux-uclibcgnueabi/4.1.1/../../../../arm-linux-uclibcgnueabi/lib/libc.a(closedir.o)
                0x00084a88                __GI_closedir
                0x00084a88                closedir
 .text          0x00084b04      0x114 /opt/RidgeRun/arm-eabi-uclibc/lib/gcc/arm-linux-uclibcgnueabi/4.1.1/../../../../arm-linux-uclibcgnueabi/lib/libc.a(opendir.o)
                0x00084b04                __GI_opendir
                0x00084b04                opendir
 .text          0x00084c18      0x1a4 /opt/RidgeRun/arm-eabi-uclibc/lib/gcc/arm-linux-uclibcgnueabi/4.1.1/../../../../arm-linux-uclibcgnueabi/lib/libc.a(scandir.o)
                0x00084c18                scandir
 .text          0x00084dbc      0x114 /opt/RidgeRun/arm-eabi-uclibc/lib/gcc/arm-linux-uclibcgnueabi/4.1.1/../../../../arm-linux-uclibcgnueabi/lib/libc.a(fclose.o)
                0x00084dbc                __GI_fclose
                0x00084dbc                fclose
 .text          0x00084ed0        0xc /opt/RidgeRun/arm-eabi-uclibc/lib/gcc/arm-linux-uclibcgnueabi/4.1.1/../../../../arm-linux-uclibcgnueabi/lib/libc.a(fopen.o)
                0x00084ed0                __GI_fopen
                0x00084ed0                fopen
 .text          0x00084edc       0x20 /opt/RidgeRun/arm-eabi-uclibc/lib/gcc/arm-linux-uclibcgnueabi/4.1.1/../../../../arm-linux-uclibcgnueabi/lib/libc.a(fseeko.o)
                0x00084edc                __GI_fseek
                0x00084edc                fseeko
                0x00084edc                fseek
 .text          0x00084efc       0x48 /opt/RidgeRun/arm-eabi-uclibc/lib/gcc/arm-linux-uclibcgnueabi/4.1.1/../../../../arm-linux-uclibcgnueabi/lib/libc.a(ftello.o)
                0x00084efc                __GI_ftell
                0x00084efc                ftello
                0x00084efc                ftell
 .text          0x00084f44       0x48 /opt/RidgeRun/arm-eabi-uclibc/lib/gcc/arm-linux-uclibcgnueabi/4.1.1/../../../../arm-linux-uclibcgnueabi/lib/libc.a(perror.o)
                0x00084f44                perror
                0x00084f44                __GI_perror
 .text          0x00084f8c       0x70 /opt/RidgeRun/arm-eabi-uclibc/lib/gcc/arm-linux-uclibcgnueabi/4.1.1/../../../../arm-linux-uclibcgnueabi/lib/libc.a(puts.o)
                0x00084f8c                puts
 .text          0x00084ffc       0x6c /opt/RidgeRun/arm-eabi-uclibc/lib/gcc/arm-linux-uclibcgnueabi/4.1.1/../../../../arm-linux-uclibcgnueabi/lib/libc.a(remove.o)
                0x00084ffc                remove
                0x00084ffc                __GI_remove
 .text          0x00085068       0x5c /opt/RidgeRun/arm-eabi-uclibc/lib/gcc/arm-linux-uclibcgnueabi/4.1.1/../../../../arm-linux-uclibcgnueabi/lib/libc.a(rewind.o)
                0x00085068                __GI_rewind
                0x00085068                rewind
 .text          0x000850c4       0x3c /opt/RidgeRun/arm-eabi-uclibc/lib/gcc/arm-linux-uclibcgnueabi/4.1.1/../../../../arm-linux-uclibcgnueabi/lib/libc.a(printf.o)
                0x000850c4                printf
                0x000850c4                __GI_printf
 .text          0x00085100       0x10 /opt/RidgeRun/arm-eabi-uclibc/lib/gcc/arm-linux-uclibcgnueabi/4.1.1/../../../../arm-linux-uclibcgnueabi/lib/libc.a(vsprintf.o)
                0x00085100                vsprintf
 .text          0x00085110       0x30 /opt/RidgeRun/arm-eabi-uclibc/lib/gcc/arm-linux-uclibcgnueabi/4.1.1/../../../../arm-linux-uclibcgnueabi/lib/libc.a(fprintf.o)
                0x00085110                fprintf
                0x00085110                __GI_fprintf
 .text          0x00085140       0x30 /opt/RidgeRun/arm-eabi-uclibc/lib/gcc/arm-linux-uclibcgnueabi/4.1.1/../../../../arm-linux-uclibcgnueabi/lib/libc.a(snprintf.o)
                0x00085140                __GI_snprintf
                0x00085140                snprintf
 .text          0x00085170       0x30 /opt/RidgeRun/arm-eabi-uclibc/lib/gcc/arm-linux-uclibcgnueabi/4.1.1/../../../../arm-linux-uclibcgnueabi/lib/libc.a(asprintf.o)
                0x00085170                __GI_asprintf
                0x00085170                asprintf
 .text          0x000851a0       0x34 /opt/RidgeRun/arm-eabi-uclibc/lib/gcc/arm-linux-uclibcgnueabi/4.1.1/../../../../arm-linux-uclibcgnueabi/lib/libc.a(sprintf.o)
                0x000851a0                sprintf
                0x000851a0                __GI_sprintf
 .text          0x000851d4       0x68 /opt/RidgeRun/arm-eabi-uclibc/lib/gcc/arm-linux-uclibcgnueabi/4.1.1/../../../../arm-linux-uclibcgnueabi/lib/libc.a(vasprintf.o)
                0x000851d4                __GI_vasprintf
                0x000851d4                vasprintf
 .text          0x0008523c       0xc4 /opt/RidgeRun/arm-eabi-uclibc/lib/gcc/arm-linux-uclibcgnueabi/4.1.1/../../../../arm-linux-uclibcgnueabi/lib/libc.a(vsnprintf.o)
                0x0008523c                __GI_vsnprintf
                0x0008523c                vsnprintf
 .text          0x00085300      0x100 /opt/RidgeRun/arm-eabi-uclibc/lib/gcc/arm-linux-uclibcgnueabi/4.1.1/../../../../arm-linux-uclibcgnueabi/lib/libc.a(fseeko64.o)
                0x00085300                __GI_fseeko64
                0x00085300                fseeko64
 .text          0x00085400       0x90 /opt/RidgeRun/arm-eabi-uclibc/lib/gcc/arm-linux-uclibcgnueabi/4.1.1/../../../../arm-linux-uclibcgnueabi/lib/libc.a(ftello64.o)
                0x00085400                ftello64
                0x00085400                __GI_ftello64
 .text          0x00085490       0xd0 /opt/RidgeRun/arm-eabi-uclibc/lib/gcc/arm-linux-uclibcgnueabi/4.1.1/../../../../arm-linux-uclibcgnueabi/lib/libc.a(_adjust_pos.o)
                0x00085490                __stdio_adjust_position
 .text          0x00085560      0x2ac /opt/RidgeRun/arm-eabi-uclibc/lib/gcc/arm-linux-uclibcgnueabi/4.1.1/../../../../arm-linux-uclibcgnueabi/lib/libc.a(_fopen.o)
                0x00085560                _stdio_fopen
 .text          0x0008580c      0x144 /opt/RidgeRun/arm-eabi-uclibc/lib/gcc/arm-linux-uclibcgnueabi/4.1.1/../../../../arm-linux-uclibcgnueabi/lib/libc.a(_stdio.o)
                0x0008587c                __stdio_init_mutex
                0x0008588c                _stdio_term
                0x0008580c                _stdio_init
 .text          0x00085950       0x34 /opt/RidgeRun/arm-eabi-uclibc/lib/gcc/arm-linux-uclibcgnueabi/4.1.1/../../../../arm-linux-uclibcgnueabi/lib/libc.a(_wcommit.o)
                0x00085950                __stdio_wcommit
 .text          0x00085984       0x50 /opt/RidgeRun/arm-eabi-uclibc/lib/gcc/arm-linux-uclibcgnueabi/4.1.1/../../../../arm-linux-uclibcgnueabi/lib/libc.a(_cs_funcs.o)
                0x00085984                _cs_close
                0x0008598c                _cs_seek
                0x000859cc                _cs_read
                0x000859c4                _cs_write
 .text          0x000859d4      0x288 /opt/RidgeRun/arm-eabi-uclibc/lib/gcc/arm-linux-uclibcgnueabi/4.1.1/../../../../arm-linux-uclibcgnueabi/lib/libc.a(open_memstream.o)
                0x000859d4                open_memstream
                0x000859d4                __GI_open_memstream
 .text          0x00085c5c      0x794 /opt/RidgeRun/arm-eabi-uclibc/lib/gcc/arm-linux-uclibcgnueabi/4.1.1/../../../../arm-linux-uclibcgnueabi/lib/libc.a(vfprintf.o)
                0x00085d30                __GI_vfprintf
                0x00085d30                vfprintf
 .text          0x000863f0       0xa0 /opt/RidgeRun/arm-eabi-uclibc/lib/gcc/arm-linux-uclibcgnueabi/4.1.1/../../../../arm-linux-uclibcgnueabi/lib/libc.a(_ppfs_init.o)
                0x000863f0                _ppfs_init
 .text          0x00086490       0x40 /opt/RidgeRun/arm-eabi-uclibc/lib/gcc/arm-linux-uclibcgnueabi/4.1.1/../../../../arm-linux-uclibcgnueabi/lib/libc.a(_ppfs_prepargs.o)
                0x00086490                _ppfs_prepargs
 .text          0x000864d0      0x1ac /opt/RidgeRun/arm-eabi-uclibc/lib/gcc/arm-linux-uclibcgnueabi/4.1.1/../../../../arm-linux-uclibcgnueabi/lib/libc.a(_ppfs_setargs.o)
                0x000864d0                _ppfs_setargs
 .text          0x0008667c      0x554 /opt/RidgeRun/arm-eabi-uclibc/lib/gcc/arm-linux-uclibcgnueabi/4.1.1/../../../../arm-linux-uclibcgnueabi/lib/libc.a(_ppfs_parsespec.o)
                0x000866b8                _ppfs_parsespec
 .text          0x00086bd0       0x30 /opt/RidgeRun/arm-eabi-uclibc/lib/gcc/arm-linux-uclibcgnueabi/4.1.1/../../../../arm-linux-uclibcgnueabi/lib/libc.a(sscanf.o)
                0x00086bd0                sscanf
                0x00086bd0                __GI_sscanf
 .text          0x00086c00       0x9c /opt/RidgeRun/arm-eabi-uclibc/lib/gcc/arm-linux-uclibcgnueabi/4.1.1/../../../../arm-linux-uclibcgnueabi/lib/libc.a(vsscanf.o)
                0x00086c00                vsscanf
                0x00086c00                __GI_vsscanf
 .text          0x00086c9c       0x40 /opt/RidgeRun/arm-eabi-uclibc/lib/gcc/arm-linux-uclibcgnueabi/4.1.1/../../../../arm-linux-uclibcgnueabi/lib/libc.a(ferror.o)
                0x00086c9c                ferror
 .text          0x00086cdc       0x64 /opt/RidgeRun/arm-eabi-uclibc/lib/gcc/arm-linux-uclibcgnueabi/4.1.1/../../../../arm-linux-uclibcgnueabi/lib/libc.a(fflush.o)
                0x00086cdc                fflush
                0x00086cdc                __GI_fflush
 .text          0x00086d40       0x74 /opt/RidgeRun/arm-eabi-uclibc/lib/gcc/arm-linux-uclibcgnueabi/4.1.1/../../../../arm-linux-uclibcgnueabi/lib/libc.a(fgetc.o)
                0x00086d40                __GI_fgetc
                0x00086d40                getc
                0x00086d40                fgetc
 .text          0x00086db4       0x58 /opt/RidgeRun/arm-eabi-uclibc/lib/gcc/arm-linux-uclibcgnueabi/4.1.1/../../../../arm-linux-uclibcgnueabi/lib/libc.a(fgets.o)
                0x00086db4                fgets
                0x00086db4                __GI_fgets
 .text          0x00086e0c       0x84 /opt/RidgeRun/arm-eabi-uclibc/lib/gcc/arm-linux-uclibcgnueabi/4.1.1/../../../../arm-linux-uclibcgnueabi/lib/libc.a(fputc.o)
                0x00086e0c                __GI_fputc
                0x00086e0c                putc
                0x00086e0c                fputc
                0x00086e0c                __GI_putc
 .text          0x00086e90       0x58 /opt/RidgeRun/arm-eabi-uclibc/lib/gcc/arm-linux-uclibcgnueabi/4.1.1/../../../../arm-linux-uclibcgnueabi/lib/libc.a(fread.o)
                0x00086e90                fread
                0x00086e90                __GI_fread
 .text          0x00086ee8       0x58 /opt/RidgeRun/arm-eabi-uclibc/lib/gcc/arm-linux-uclibcgnueabi/4.1.1/../../../../arm-linux-uclibcgnueabi/lib/libc.a(fwrite.o)
                0x00086ee8                fwrite
                0x00086ee8                __GI_fwrite
 .text          0x00086f40       0x90 /opt/RidgeRun/arm-eabi-uclibc/lib/gcc/arm-linux-uclibcgnueabi/4.1.1/../../../../arm-linux-uclibcgnueabi/lib/libc.a(putchar.o)
                0x00086f40                putchar
 .text          0x00086fd0      0x108 /opt/RidgeRun/arm-eabi-uclibc/lib/gcc/arm-linux-uclibcgnueabi/4.1.1/../../../../arm-linux-uclibcgnueabi/lib/libc.a(fflush_unlocked.o)
                0x00086fd0                fflush_unlocked
                0x00086fd0                __GI_fflush_unlocked
 .text          0x000870d8      0x11c /opt/RidgeRun/arm-eabi-uclibc/lib/gcc/arm-linux-uclibcgnueabi/4.1.1/../../../../arm-linux-uclibcgnueabi/lib/libc.a(fgetc_unlocked.o)
                0x000870d8                getc_unlocked
                0x000870d8                __GI_fgetc_unlocked
                0x000870d8                __fgetc_unlocked
                0x000870d8                __GI_getc_unlocked
                0x000870d8                __GI___fgetc_unlocked
                0x000870d8                fgetc_unlocked
 .text          0x000871f4       0x98 /opt/RidgeRun/arm-eabi-uclibc/lib/gcc/arm-linux-uclibcgnueabi/4.1.1/../../../../arm-linux-uclibcgnueabi/lib/libc.a(fgets_unlocked.o)
                0x000871f4                __GI_fgets_unlocked
                0x000871f4                fgets_unlocked
 .text          0x0008728c      0x104 /opt/RidgeRun/arm-eabi-uclibc/lib/gcc/arm-linux-uclibcgnueabi/4.1.1/../../../../arm-linux-uclibcgnueabi/lib/libc.a(fputc_unlocked.o)
                0x0008728c                putc_unlocked
                0x0008728c                __GI___fputc_unlocked
                0x0008728c                __GI_putc_unlocked
                0x0008728c                fputc_unlocked
                0x0008728c                __fputc_unlocked
 .text          0x00087390       0x34 /opt/RidgeRun/arm-eabi-uclibc/lib/gcc/arm-linux-uclibcgnueabi/4.1.1/../../../../arm-linux-uclibcgnueabi/lib/libc.a(fputs_unlocked.o)
                0x00087390                __GI_fputs_unlocked
                0x00087390                fputs_unlocked
 .text          0x000873c4      0x174 /opt/RidgeRun/arm-eabi-uclibc/lib/gcc/arm-linux-uclibcgnueabi/4.1.1/../../../../arm-linux-uclibcgnueabi/lib/libc.a(fread_unlocked.o)
                0x000873c4                __GI_fread_unlocked
                0x000873c4                fread_unlocked
 .text          0x00087538       0xb0 /opt/RidgeRun/arm-eabi-uclibc/lib/gcc/arm-linux-uclibcgnueabi/4.1.1/../../../../arm-linux-uclibcgnueabi/lib/libc.a(fwrite_unlocked.o)
                0x00087538                __GI_fwrite_unlocked
                0x00087538                fwrite_unlocked
 *fill*         0x000875e8        0x8 00000000
 .text          0x000875f0       0x30 /opt/RidgeRun/arm-eabi-uclibc/lib/gcc/arm-linux-uclibcgnueabi/4.1.1/../../../../arm-linux-uclibcgnueabi/lib/libc.a(memcmp.o)
                0x000875f0                __GI_memcmp
                0x000875f0                memcmp
 .text          0x00087620       0x10 /opt/RidgeRun/arm-eabi-uclibc/lib/gcc/arm-linux-uclibcgnueabi/4.1.1/../../../../arm-linux-uclibcgnueabi/lib/libc.a(memcpy.o)
                0x00087620                memcpy
                0x00087620                __GI_memcpy
 .text          0x00087630       0xa0 /opt/RidgeRun/arm-eabi-uclibc/lib/gcc/arm-linux-uclibcgnueabi/4.1.1/../../../../arm-linux-uclibcgnueabi/lib/libc.a(memset.o)
                0x00087630                __GI_memset
                0x00087630                memset
 .text          0x000876d0       0x20 /opt/RidgeRun/arm-eabi-uclibc/lib/gcc/arm-linux-uclibcgnueabi/4.1.1/../../../../arm-linux-uclibcgnueabi/lib/libc.a(strcmp.o)
                0x000876d0                __GI_strcoll
                0x000876d0                __GI_strcmp
                0x000876d0                strcoll
                0x000876d0                strcmp
 .text          0x000876f0       0x60 /opt/RidgeRun/arm-eabi-uclibc/lib/gcc/arm-linux-uclibcgnueabi/4.1.1/../../../../arm-linux-uclibcgnueabi/lib/libc.a(strlen.o)
                0x000876f0                strlen
                0x000876f0                __GI_strlen
 .text          0x00087750       0x40 /opt/RidgeRun/arm-eabi-uclibc/lib/gcc/arm-linux-uclibcgnueabi/4.1.1/../../../../arm-linux-uclibcgnueabi/lib/libc.a(strncmp.o)
                0x00087750                __GI_strncmp
                0x00087750                strncmp
 .text          0x00087790       0x28 /opt/RidgeRun/arm-eabi-uclibc/lib/gcc/arm-linux-uclibcgnueabi/4.1.1/../../../../arm-linux-uclibcgnueabi/lib/libc.a(strcat.o)
                0x00087790                strcat
                0x00087790                __GI_strcat
 .text          0x000877b8       0x1c /opt/RidgeRun/arm-eabi-uclibc/lib/gcc/arm-linux-uclibcgnueabi/4.1.1/../../../../arm-linux-uclibcgnueabi/lib/libc.a(strcpy.o)
                0x000877b8                strcpy
                0x000877b8                __GI_strcpy
 .text          0x000877d4       0xbc /opt/RidgeRun/arm-eabi-uclibc/lib/gcc/arm-linux-uclibcgnueabi/4.1.1/../../../../arm-linux-uclibcgnueabi/lib/libc.a(strncpy.o)
                0x000877d4                strncpy
                0x000877d4                __GI_strncpy
 .text          0x00087890       0xe0 /opt/RidgeRun/arm-eabi-uclibc/lib/gcc/arm-linux-uclibcgnueabi/4.1.1/../../../../arm-linux-uclibcgnueabi/lib/libc.a(strnlen.o)
                0x00087890                strnlen
                0x00087890                __GI_strnlen
 .text          0x00087970       0x50 /opt/RidgeRun/arm-eabi-uclibc/lib/gcc/arm-linux-uclibcgnueabi/4.1.1/../../../../arm-linux-uclibcgnueabi/lib/libc.a(strrchr.o)
                0x00087970                strrchr
                0x00087970                __GI_strrchr
 .text          0x000879c0       0xf8 /opt/RidgeRun/arm-eabi-uclibc/lib/gcc/arm-linux-uclibcgnueabi/4.1.1/../../../../arm-linux-uclibcgnueabi/lib/libc.a(strstr.o)
                0x000879c0                strstr
                0x000879c0                __GI_strstr
 .text          0x00087ab8       0x14 /opt/RidgeRun/arm-eabi-uclibc/lib/gcc/arm-linux-uclibcgnueabi/4.1.1/../../../../arm-linux-uclibcgnueabi/lib/libc.a(__glibc_strerror_r.o)
                0x00087ab8                __GI___glibc_strerror_r
                0x00087ab8                __glibc_strerror_r
 .text          0x00087acc       0xf8 /opt/RidgeRun/arm-eabi-uclibc/lib/gcc/arm-linux-uclibcgnueabi/4.1.1/../../../../arm-linux-uclibcgnueabi/lib/libc.a(__xpg_strerror_r.o)
                0x00087acc                __xpg_strerror_r
                0x00087acc                __GI___xpg_strerror_r
 .text          0x00087bc4       0x58 /opt/RidgeRun/arm-eabi-uclibc/lib/gcc/arm-linux-uclibcgnueabi/4.1.1/../../../../arm-linux-uclibcgnueabi/lib/libc.a(strcasecmp.o)
                0x00087bc4                __GI_strcasecmp
                0x00087bc4                strcasecmp
 .text          0x00087c1c       0x2c /opt/RidgeRun/arm-eabi-uclibc/lib/gcc/arm-linux-uclibcgnueabi/4.1.1/../../../../arm-linux-uclibcgnueabi/lib/libc.a(strdup.o)
                0x00087c1c                __GI_strdup
                0x00087c1c                strdup
 .text          0x00087c48       0x20 /opt/RidgeRun/arm-eabi-uclibc/lib/gcc/arm-linux-uclibcgnueabi/4.1.1/../../../../arm-linux-uclibcgnueabi/lib/libc.a(strerror.o)
                0x00087c48                strerror
                0x00087c48                __GI_strerror
 .text          0x00087c68       0x6c /opt/RidgeRun/arm-eabi-uclibc/lib/gcc/arm-linux-uclibcgnueabi/4.1.1/../../../../arm-linux-uclibcgnueabi/lib/libc.a(strncasecmp.o)
                0x00087c68                strncasecmp
                0x00087c68                __GI_strncasecmp
 .text          0x00087cd4       0x20 /opt/RidgeRun/arm-eabi-uclibc/lib/gcc/arm-linux-uclibcgnueabi/4.1.1/../../../../arm-linux-uclibcgnueabi/lib/libc.a(isatty.o)
                0x00087cd4                isatty
                0x00087cd4                __GI_isatty
 .text          0x00087cf4       0x74 /opt/RidgeRun/arm-eabi-uclibc/lib/gcc/arm-linux-uclibcgnueabi/4.1.1/../../../../arm-linux-uclibcgnueabi/lib/libc.a(tcgetattr.o)
                0x00087cf4                __GI_tcgetattr
                0x00087cf4                tcgetattr
 .text          0x00087d68       0xc4 /opt/RidgeRun/arm-eabi-uclibc/lib/gcc/arm-linux-uclibcgnueabi/4.1.1/../../../../arm-linux-uclibcgnueabi/lib/libc.a(signal.o)
                0x00087d68                __bsd_signal
                0x00087d68                bsd_signal
                0x00087d68                signal
                0x00087d68                __GI_signal
 .text          0x00087e2c       0x6c /opt/RidgeRun/arm-eabi-uclibc/lib/gcc/arm-linux-uclibcgnueabi/4.1.1/../../../../arm-linux-uclibcgnueabi/lib/libc.a(sigsetops.o)
                0x00087e74                __sigdelset
                0x00087e50                __sigaddset
                0x00087e2c                __sigismember
 .text          0x00087e98      0x134 /opt/RidgeRun/arm-eabi-uclibc/lib/gcc/arm-linux-uclibcgnueabi/4.1.1/../../../../arm-linux-uclibcgnueabi/lib/libc.a(malloc.o)
                0x00087e98                malloc
 .text          0x00087fcc       0x70 /opt/RidgeRun/arm-eabi-uclibc/lib/gcc/arm-linux-uclibcgnueabi/4.1.1/../../../../arm-linux-uclibcgnueabi/lib/libc.a(calloc.o)
                0x00087fcc                calloc
 .text          0x0008803c      0x108 /opt/RidgeRun/arm-eabi-uclibc/lib/gcc/arm-linux-uclibcgnueabi/4.1.1/../../../../arm-linux-uclibcgnueabi/lib/libc.a(free.o)
                0x0008803c                free
 .text          0x00088144       0xe8 /opt/RidgeRun/arm-eabi-uclibc/lib/gcc/arm-linux-uclibcgnueabi/4.1.1/../../../../arm-linux-uclibcgnueabi/lib/libc.a(realloc.o)
                0x00088144                realloc
 .text          0x0008822c       0x94 /opt/RidgeRun/arm-eabi-uclibc/lib/gcc/arm-linux-uclibcgnueabi/4.1.1/../../../../arm-linux-uclibcgnueabi/lib/libc.a(heap_alloc.o)
                0x0008822c                __heap_alloc
 .text          0x000882c0       0x8c /opt/RidgeRun/arm-eabi-uclibc/lib/gcc/arm-linux-uclibcgnueabi/4.1.1/../../../../arm-linux-uclibcgnueabi/lib/libc.a(heap_alloc_at.o)
                0x000882c0                __heap_alloc_at
 .text          0x0008834c      0x130 /opt/RidgeRun/arm-eabi-uclibc/lib/gcc/arm-linux-uclibcgnueabi/4.1.1/../../../../arm-linux-uclibcgnueabi/lib/libc.a(heap_free.o)
                0x00088380                __heap_free
 .text          0x0008847c      0x130 /opt/RidgeRun/arm-eabi-uclibc/lib/gcc/arm-linux-uclibcgnueabi/4.1.1/../../../../arm-linux-uclibcgnueabi/lib/libc.a(abort.o)
                0x0008847c                abort
                0x0008847c                __GI_abort
 .text          0x000885ac      0x5e8 /opt/RidgeRun/arm-eabi-uclibc/lib/gcc/arm-linux-uclibcgnueabi/4.1.1/../../../../arm-linux-uclibcgnueabi/lib/libc.a(system.o)
                0x00088b24                system
                0x00088b24                __libc_system
 .text          0x00088b94        0xc /opt/RidgeRun/arm-eabi-uclibc/lib/gcc/arm-linux-uclibcgnueabi/4.1.1/../../../../arm-linux-uclibcgnueabi/lib/libc.a(atol.o)
                0x00088b94                atol
                0x00088b94                __GI_atol
                0x00088b94                atoi
                0x00088b94                __GI_atoi
 .text          0x00088ba0        0x8 /opt/RidgeRun/arm-eabi-uclibc/lib/gcc/arm-linux-uclibcgnueabi/4.1.1/../../../../arm-linux-uclibcgnueabi/lib/libc.a(strtol.o)
                0x00088ba0                strtol
                0x00088ba0                __GI_strtol
 .text          0x00088ba8      0x1c0 /opt/RidgeRun/arm-eabi-uclibc/lib/gcc/arm-linux-uclibcgnueabi/4.1.1/../../../../arm-linux-uclibcgnueabi/lib/libc.a(_stdlib_strto_l.o)
                0x00088ba8                _stdlib_strto_l
 .text          0x00088d68       0xc4 /opt/RidgeRun/arm-eabi-uclibc/lib/gcc/arm-linux-uclibcgnueabi/4.1.1/../../../../arm-linux-uclibcgnueabi/lib/libc.a(qsort.o)
                0x00088d68                qsort
                0x00088d68                __GI_qsort
 .text          0x00088e2c       0x54 /opt/RidgeRun/arm-eabi-uclibc/lib/gcc/arm-linux-uclibcgnueabi/4.1.1/../../../../arm-linux-uclibcgnueabi/lib/libc.a(exit.o)
                0x00088e2c                __GI_exit
                0x00088e2c                exit
 .text          0x00088e80       0x98 /opt/RidgeRun/arm-eabi-uclibc/lib/gcc/arm-linux-uclibcgnueabi/4.1.1/../../../../arm-linux-uclibcgnueabi/lib/libc.a(execl.o)
                0x00088e80                execl
                0x00088e80                __GI_execl
 .text          0x00088f18       0x4c /opt/RidgeRun/arm-eabi-uclibc/lib/gcc/arm-linux-uclibcgnueabi/4.1.1/../../../../arm-linux-uclibcgnueabi/lib/libc.a(usleep.o)
                0x00088f18                usleep
 .text          0x00088f64      0x430 /opt/RidgeRun/arm-eabi-uclibc/lib/gcc/arm-linux-uclibcgnueabi/4.1.1/../../../../arm-linux-uclibcgnueabi/lib/libc.a(__uClibc_main.o)
                0x00088f64                __GI___uClibc_fini
                0x00088f64                __uClibc_fini
                0x00089068                __GI___uClibc_init
                0x00089068                __uClibc_init
                0x000890c4                __uClibc_main
 .text          0x00089394        0x8 /opt/RidgeRun/arm-eabi-uclibc/lib/gcc/arm-linux-uclibcgnueabi/4.1.1/../../../../arm-linux-uclibcgnueabi/lib/libc.a(weaks.o)
                0x00089394                __pthread_mutex_lock
                0x00089394                __pthread_mutex_init
                0x00089394                __pthread_mutex_unlock
                0x00089394                __pthread_mutex_trylock
 .text          0x0008939c      0x194 /opt/RidgeRun/arm-eabi-uclibc/lib/gcc/arm-linux-uclibcgnueabi/4.1.1/../../../../arm-linux-uclibcgnueabi/lib/libc.a(libc-cancellation.o)
                0x000893c8                __libc_disable_asynccancel
                0x00089438                __libc_enable_asynccancel
                0x0008939c                __libc_cleanup_routine
 .text          0x00089530      0x234 /opt/RidgeRun/arm-eabi-uclibc/lib/gcc/arm-linux-uclibcgnueabi/4.1.1/../../../../arm-linux-uclibcgnueabi/lib/libc.a(libc-tls.o)
                0x00089758                __pthread_initialize_minimal
                0x00089530                __libc_setup_tls
 .text          0x00089764       0xe4 /opt/RidgeRun/arm-eabi-uclibc/lib/gcc/arm-linux-uclibcgnueabi/4.1.1/../../../../arm-linux-uclibcgnueabi/lib/libc.a(sigaction.o)
                0x00089764                __libc_sigaction
                0x00089764                __GI_sigaction
                0x00089764                sigaction
 .text          0x00089848       0x14 /opt/RidgeRun/arm-eabi-uclibc/lib/gcc/arm-linux-uclibcgnueabi/4.1.1/../../../../arm-linux-uclibcgnueabi/lib/libc.a(__longjmp.o)
                0x00089848                __longjmp
                0x00089848                __GI___longjmp
 .text          0x0008985c        0xc /opt/RidgeRun/arm-eabi-uclibc/lib/gcc/arm-linux-uclibcgnueabi/4.1.1/../../../../arm-linux-uclibcgnueabi/lib/libc.a(setjmp.o)
                0x0008985c                __sigsetjmp
 .text          0x00089868       0x18 /opt/RidgeRun/arm-eabi-uclibc/lib/gcc/arm-linux-uclibcgnueabi/4.1.1/../../../../arm-linux-uclibcgnueabi/lib/libc.a(sigrestorer.o)
                0x0008986c                __default_sa_restorer
                0x00089878                __default_rt_sa_restorer
 .text          0x00089880       0x54 /opt/RidgeRun/arm-eabi-uclibc/lib/gcc/arm-linux-uclibcgnueabi/4.1.1/../../../../arm-linux-uclibcgnueabi/lib/libc.a(mmap64.o)
                0x00089880                mmap64
 .text          0x000898d4       0x34 /opt/RidgeRun/arm-eabi-uclibc/lib/gcc/arm-linux-uclibcgnueabi/4.1.1/../../../../arm-linux-uclibcgnueabi/lib/libc.a(__syscall_rt_sigaction.o)
                0x000898d4                __syscall_rt_sigaction
 .text          0x00089908       0x38 /opt/RidgeRun/arm-eabi-uclibc/lib/gcc/arm-linux-uclibcgnueabi/4.1.1/../../../../arm-linux-uclibcgnueabi/lib/libc.a(_exit.o)
                0x00089908                __GI__exit
                0x00089908                _exit
 .text          0x00089940       0x34 /opt/RidgeRun/arm-eabi-uclibc/lib/gcc/arm-linux-uclibcgnueabi/4.1.1/../../../../arm-linux-uclibcgnueabi/lib/libc.a(execve.o)
                0x00089940                __GI_execve
                0x00089940                execve
 .text          0x00089974       0x68 /opt/RidgeRun/arm-eabi-uclibc/lib/gcc/arm-linux-uclibcgnueabi/4.1.1/../../../../arm-linux-uclibcgnueabi/lib/libc.a(fstat.o)
                0x00089974                fstat
                0x00089974                __GI_fstat
 .text          0x000899dc       0x34 /opt/RidgeRun/arm-eabi-uclibc/lib/gcc/arm-linux-uclibcgnueabi/4.1.1/../../../../arm-linux-uclibcgnueabi/lib/libc.a(getegid.o)
                0x000899dc                getegid
                0x000899dc                __GI_getegid
 .text          0x00089a10       0x34 /opt/RidgeRun/arm-eabi-uclibc/lib/gcc/arm-linux-uclibcgnueabi/4.1.1/../../../../arm-linux-uclibcgnueabi/lib/libc.a(geteuid.o)
                0x00089a10                geteuid
                0x00089a10                __GI_geteuid
 .text          0x00089a44       0x34 /opt/RidgeRun/arm-eabi-uclibc/lib/gcc/arm-linux-uclibcgnueabi/4.1.1/../../../../arm-linux-uclibcgnueabi/lib/libc.a(getgid.o)
                0x00089a44                getgid
                0x00089a44                __GI_getgid
 .text          0x00089a78       0x34 /opt/RidgeRun/arm-eabi-uclibc/lib/gcc/arm-linux-uclibcgnueabi/4.1.1/../../../../arm-linux-uclibcgnueabi/lib/libc.a(getuid.o)
                0x00089a78                getuid
                0x00089a78                __GI_getuid
 .text          0x00089aac       0x70 /opt/RidgeRun/arm-eabi-uclibc/lib/gcc/arm-linux-uclibcgnueabi/4.1.1/../../../../arm-linux-uclibcgnueabi/lib/libc.a(llseek.o)
                0x00089aac                __GI_lseek64
                0x00089aac                __libc_lseek64
                0x00089aac                lseek64
 .text          0x00089b1c       0x84 /opt/RidgeRun/arm-eabi-uclibc/lib/gcc/arm-linux-uclibcgnueabi/4.1.1/../../../../arm-linux-uclibcgnueabi/lib/libc.a(nanosleep.o)
                0x00089b50                __libc_nanosleep
                0x00089b50                nanosleep
                0x00089b50                __GI_nanosleep
 .text          0x00089ba0       0x34 /opt/RidgeRun/arm-eabi-uclibc/lib/gcc/arm-linux-uclibcgnueabi/4.1.1/../../../../arm-linux-uclibcgnueabi/lib/libc.a(rmdir.o)
                0x00089ba0                rmdir
                0x00089ba0                __GI_rmdir
 .text          0x00089bd4       0x60 /opt/RidgeRun/arm-eabi-uclibc/lib/gcc/arm-linux-uclibcgnueabi/4.1.1/../../../../arm-linux-uclibcgnueabi/lib/libc.a(sbrk.o)
                0x00089bd4                __GI_sbrk
                0x00089bd4                sbrk
 .text          0x00089c34       0x34 /opt/RidgeRun/arm-eabi-uclibc/lib/gcc/arm-linux-uclibcgnueabi/4.1.1/../../../../arm-linux-uclibcgnueabi/lib/libc.a(unlink.o)
                0x00089c34                unlink
                0x00089c34                __GI_unlink
 .text          0x00089c68       0x68 /opt/RidgeRun/arm-eabi-uclibc/lib/gcc/arm-linux-uclibcgnueabi/4.1.1/../../../../arm-linux-uclibcgnueabi/lib/libc.a(waitpid.o)
                0x00089c68                waitpid
                0x00089c68                __libc_waitpid
                0x00089c68                __GI_waitpid
 .text          0x00089cd0       0x84 /opt/RidgeRun/arm-eabi-uclibc/lib/gcc/arm-linux-uclibcgnueabi/4.1.1/../../../../arm-linux-uclibcgnueabi/lib/libc.a(readdir.o)
                0x00089cd0                __GI_readdir
                0x00089cd0                readdir
 .text          0x00089d54       0x50 /opt/RidgeRun/arm-eabi-uclibc/lib/gcc/arm-linux-uclibcgnueabi/4.1.1/../../../../arm-linux-uclibcgnueabi/lib/libc.a(wcrtomb.o)
                0x00089d54                __GI_wcrtomb
                0x00089d54                wcrtomb
 .text          0x00089da4       0x20 /opt/RidgeRun/arm-eabi-uclibc/lib/gcc/arm-linux-uclibcgnueabi/4.1.1/../../../../arm-linux-uclibcgnueabi/lib/libc.a(wcsrtombs.o)
                0x00089da4                __GI_wcsrtombs
                0x00089da4                wcsrtombs
 .text          0x00089dc4       0xc8 /opt/RidgeRun/arm-eabi-uclibc/lib/gcc/arm-linux-uclibcgnueabi/4.1.1/../../../../arm-linux-uclibcgnueabi/lib/libc.a(wcsnrtombs.o)
                0x00089dc4                __GI_wcsnrtombs
                0x00089dc4                wcsnrtombs
 .text          0x00089e8c       0x80 /opt/RidgeRun/arm-eabi-uclibc/lib/gcc/arm-linux-uclibcgnueabi/4.1.1/../../../../arm-linux-uclibcgnueabi/lib/libc.a(_READ.o)
                0x00089e8c                __stdio_READ
 .text          0x00089f0c       0xc0 /opt/RidgeRun/arm-eabi-uclibc/lib/gcc/arm-linux-uclibcgnueabi/4.1.1/../../../../arm-linux-uclibcgnueabi/lib/libc.a(_WRITE.o)
                0x00089f0c                __stdio_WRITE
 .text          0x00089fcc      0x140 /opt/RidgeRun/arm-eabi-uclibc/lib/gcc/arm-linux-uclibcgnueabi/4.1.1/../../../../arm-linux-uclibcgnueabi/lib/libc.a(_fwrite.o)
                0x00089fcc                __stdio_fwrite
 .text          0x0008a10c       0x2c /opt/RidgeRun/arm-eabi-uclibc/lib/gcc/arm-linux-uclibcgnueabi/4.1.1/../../../../arm-linux-uclibcgnueabi/lib/libc.a(_rfill.o)
                0x0008a10c                __stdio_rfill
 .text          0x0008a138       0x9c /opt/RidgeRun/arm-eabi-uclibc/lib/gcc/arm-linux-uclibcgnueabi/4.1.1/../../../../arm-linux-uclibcgnueabi/lib/libc.a(_trans2r.o)
                0x0008a138                __stdio_trans2r_o
 .text          0x0008a1d4       0xdc /opt/RidgeRun/arm-eabi-uclibc/lib/gcc/arm-linux-uclibcgnueabi/4.1.1/../../../../arm-linux-uclibcgnueabi/lib/libc.a(_trans2w.o)
                0x0008a1d4                __stdio_trans2w_o
 .text          0x0008a2b0       0x74 /opt/RidgeRun/arm-eabi-uclibc/lib/gcc/arm-linux-uclibcgnueabi/4.1.1/../../../../arm-linux-uclibcgnueabi/lib/libc.a(_load_inttype.o)
                0x0008a2b0                _load_inttype
 .text          0x0008a324       0x2c /opt/RidgeRun/arm-eabi-uclibc/lib/gcc/arm-linux-uclibcgnueabi/4.1.1/../../../../arm-linux-uclibcgnueabi/lib/libc.a(_store_inttype.o)
                0x0008a324                _store_inttype
 .text          0x0008a350      0x154 /opt/RidgeRun/arm-eabi-uclibc/lib/gcc/arm-linux-uclibcgnueabi/4.1.1/../../../../arm-linux-uclibcgnueabi/lib/libc.a(_uintmaxtostr.o)
                0x0008a350                _uintmaxtostr
 .text          0x0008a4a4      0xa28 /opt/RidgeRun/arm-eabi-uclibc/lib/gcc/arm-linux-uclibcgnueabi/4.1.1/../../../../arm-linux-uclibcgnueabi/lib/libc.a(_fpmaxtostr.o)
                0x0008a4a4                _fpmaxtostr
 .text          0x0008aecc       0x58 /opt/RidgeRun/arm-eabi-uclibc/lib/gcc/arm-linux-uclibcgnueabi/4.1.1/../../../../arm-linux-uclibcgnueabi/lib/libc.a(fopencookie.o)
                0x0008aecc                fopencookie
                0x0008aecc                __GI_fopencookie
 .text          0x0008af24      0x728 /opt/RidgeRun/arm-eabi-uclibc/lib/gcc/arm-linux-uclibcgnueabi/4.1.1/../../../../arm-linux-uclibcgnueabi/lib/libc.a(vfscanf.o)
                0x0008aff0                __GI_vfscanf
                0x0008aff0                vfscanf
 .text          0x0008b64c      0x124 /opt/RidgeRun/arm-eabi-uclibc/lib/gcc/arm-linux-uclibcgnueabi/4.1.1/../../../../arm-linux-uclibcgnueabi/lib/libc.a(__scan_cookie.o)
                0x0008b724                __scan_ungetc
                0x0008b6a0                __scan_getc
                0x0008b64c                __init_scan_cookie
 .text          0x0008b770      0x284 /opt/RidgeRun/arm-eabi-uclibc/lib/gcc/arm-linux-uclibcgnueabi/4.1.1/../../../../arm-linux-uclibcgnueabi/lib/libc.a(__psfs_parse_spec.o)
                0x0008b770                __psfs_parse_spec
 .text          0x0008b9f4      0x544 /opt/RidgeRun/arm-eabi-uclibc/lib/gcc/arm-linux-uclibcgnueabi/4.1.1/../../../../arm-linux-uclibcgnueabi/lib/libc.a(__psfs_do_numeric.o)
                0x0008b9f4                __psfs_do_numeric
 *fill*         0x0008bf38        0x8 00000000
 .text          0x0008bf40      0x490 /opt/RidgeRun/arm-eabi-uclibc/lib/gcc/arm-linux-uclibcgnueabi/4.1.1/../../../../arm-linux-uclibcgnueabi/lib/libc.a(_memcpy.o)
                0x0008bf40                _memcpy
 .text          0x0008c3d0       0xfc /opt/RidgeRun/arm-eabi-uclibc/lib/gcc/arm-linux-uclibcgnueabi/4.1.1/../../../../arm-linux-uclibcgnueabi/lib/libc.a(memchr.o)
                0x0008c3d0                __GI_memchr
                0x0008c3d0                memchr
 .text          0x0008c4cc       0x20 /opt/RidgeRun/arm-eabi-uclibc/lib/gcc/arm-linux-uclibcgnueabi/4.1.1/../../../../arm-linux-uclibcgnueabi/lib/libc.a(mempcpy.o)
                0x0008c4cc                mempcpy
                0x0008c4cc                __GI_mempcpy
 .text          0x0008c4ec       0xec /opt/RidgeRun/arm-eabi-uclibc/lib/gcc/arm-linux-uclibcgnueabi/4.1.1/../../../../arm-linux-uclibcgnueabi/lib/libc.a(memrchr.o)
                0x0008c4ec                memrchr
                0x0008c4ec                __GI_memrchr
 .text          0x0008c5d8      0x108 /opt/RidgeRun/arm-eabi-uclibc/lib/gcc/arm-linux-uclibcgnueabi/4.1.1/../../../../arm-linux-uclibcgnueabi/lib/libc.a(strchr.o)
                0x0008c5d8                __GI_strchr
                0x0008c5d8                strchr
 .text          0x0008c6e0       0x3c /opt/RidgeRun/arm-eabi-uclibc/lib/gcc/arm-linux-uclibcgnueabi/4.1.1/../../../../arm-linux-uclibcgnueabi/lib/libc.a(sigjmp.o)
                0x0008c6e0                __sigjmp_save
 .text          0x0008c71c      0x23c /opt/RidgeRun/arm-eabi-uclibc/lib/gcc/arm-linux-uclibcgnueabi/4.1.1/../../../../arm-linux-uclibcgnueabi/lib/libc.a(_stdlib_strto_ll.o)
                0x0008c71c                _stdlib_strto_ll
 .text          0x0008c958      0x44c /opt/RidgeRun/arm-eabi-uclibc/lib/gcc/arm-linux-uclibcgnueabi/4.1.1/../../../../arm-linux-uclibcgnueabi/lib/libc.a(__strtofpmax.o)
                0x0008c958                __strtofpmax
 .text          0x0008cda4       0xa0 /opt/RidgeRun/arm-eabi-uclibc/lib/gcc/arm-linux-uclibcgnueabi/4.1.1/../../../../arm-linux-uclibcgnueabi/lib/libc.a(dl-support.o)
                0x0008cdf0                _dl_nothread_init_static_tls
                0x0008cda4                _dl_aux_init
 .text          0x0008ce44       0x4c /opt/RidgeRun/arm-eabi-uclibc/lib/gcc/arm-linux-uclibcgnueabi/4.1.1/../../../../arm-linux-uclibcgnueabi/lib/libc.a(brk.o)
                0x0008ce44                __GI_brk
                0x0008ce44                brk
 .text          0x0008ce90       0x28 /opt/RidgeRun/arm-eabi-uclibc/lib/gcc/arm-linux-uclibcgnueabi/4.1.1/../../../../arm-linux-uclibcgnueabi/lib/libc.a(__syscall_error.o)
                0x0008ce90                __syscall_error
 .text          0x0008ceb8       0x70 /opt/RidgeRun/arm-eabi-uclibc/lib/gcc/arm-linux-uclibcgnueabi/4.1.1/../../../../arm-linux-uclibcgnueabi/lib/libc.a(getdents.o)
                0x0008ceb8                __getdents
 .text          0x0008cf28      0x150 /opt/RidgeRun/arm-eabi-uclibc/lib/gcc/arm-linux-uclibcgnueabi/4.1.1/../../../../arm-linux-uclibcgnueabi/lib/libc.a(getdents64.o)
                0x0008cf28                __getdents64
 .text          0x0008d078       0x34 /opt/RidgeRun/arm-eabi-uclibc/lib/gcc/arm-linux-uclibcgnueabi/4.1.1/../../../../arm-linux-uclibcgnueabi/lib/libc.a(wait4.o)
                0x0008d078                wait4
                0x0008d078                __GI_wait4
 .text          0x0008d0ac       0xa4 /opt/RidgeRun/arm-eabi-uclibc/lib/gcc/arm-linux-uclibcgnueabi/4.1.1/../../../../arm-linux-uclibcgnueabi/lib/libc.a(mbrtowc.o)
                0x0008d0ac                mbrtowc
                0x0008d0ac                __GI_mbrtowc
 .text          0x0008d150       0xd8 /opt/RidgeRun/arm-eabi-uclibc/lib/gcc/arm-linux-uclibcgnueabi/4.1.1/../../../../arm-linux-uclibcgnueabi/lib/libc.a(mbsnrtowcs.o)
                0x0008d150                mbsnrtowcs
                0x0008d150                __GI_mbsnrtowcs
 .text          0x0008d228      0x104 /opt/RidgeRun/arm-eabi-uclibc/lib/gcc/arm-linux-uclibcgnueabi/4.1.1/../../../../arm-linux-uclibcgnueabi/lib/libc.a(ungetc.o)
                0x0008d228                ungetc
                0x0008d228                __GI_ungetc
 *fill*         0x0008d32c        0x4 00000000
 .text          0x0008d330       0x10 /opt/RidgeRun/arm-eabi-uclibc/lib/gcc/arm-linux-uclibcgnueabi/4.1.1/../../../../arm-linux-uclibcgnueabi/lib/libc.a(memmove.o)
                0x0008d330                memmove
                0x0008d330                __GI_memmove
 .text          0x0008d340       0xa0 /opt/RidgeRun/arm-eabi-uclibc/lib/gcc/arm-linux-uclibcgnueabi/4.1.1/libgcc.a(_truncdfsf2.o)
                0x0008d340                __aeabi_d2f
                0x0008d340                __truncdfsf2
 *(.text.*personality*)
 *(.gnu.warning)
 *(.glue_7t)
 *(.glue_7)

.fini           0x0008d3e0        0x8
 *(.fini)
 .fini          0x0008d3e0        0x4 /opt/RidgeRun/arm-eabi-uclibc/lib/gcc/arm-linux-uclibcgnueabi/4.1.1/../../../../arm-linux-uclibcgnueabi/lib/crti.o
                0x0008d3e0                _fini
 .fini          0x0008d3e4        0x4 /opt/RidgeRun/arm-eabi-uclibc/lib/gcc/arm-linux-uclibcgnueabi/4.1.1/../../../../arm-linux-uclibcgnueabi/lib/crtn.o
                0x0008d3e8                PROVIDE (__etext, .)
                0x0008d3e8                PROVIDE (_etext, .)
                0x0008d3e8                PROVIDE (etext, .)

.rodata         0x0008d3e8     0xd8b8
 *(.rodata .rodata.* .gnu.linkonce.r.*)
 .rodata.str1.4
                0x0008d3e8      0x1bd fce.o
                                0x1c8 (size before relaxing)
 *fill*         0x0008d5a5        0x3 00
 .rodata.str1.4
                0x0008d5a8        0xd video.o
                                 0x2c (size before relaxing)
 *fill*         0x0008d5b5        0x3 00
 .rodata.str1.4
                0x0008d5b8      0x19d general.o
                                0x1a4 (size before relaxing)
 *fill*         0x0008d755        0x3 00
 .rodata.str1.4
                0x0008d758       0x3a svga.o
                                 0x3c (size before relaxing)
 *fill*         0x0008d792        0x2 00
 .rodata        0x0008d794      0xa1c svga.o
 .rodata        0x0008e1b0       0x90 sound.o
 .rodata.str1.4
                0x0008e240      0x17f nsf.o
                                0x188 (size before relaxing)
 *fill*         0x0008e3bf        0x1 00
 .rodata        0x0008e3c0       0x18 nsf.o
 .rodata.str1.4
                0x0008e3d8      0x207 fds.o
                                0x210 (size before relaxing)
 *fill*         0x0008e5df        0x1 00
 .rodata.str1.4
                0x0008e5e0      0x50b ines.o
                                0x54c (size before relaxing)
 *fill*         0x0008eaeb        0x5 00
 .rodata        0x0008eaf0      0xd40 ines.o
 .rodata.str1.4
                0x0008f830      0x27d state.o
                                0x288 (size before relaxing)
 *fill*         0x0008faad        0x3 00
 .rodata        0x0008fab0       0x18 state.o
 .rodata.str1.4
                0x0008fac8      0x515 unif.o
                                0x594 (size before relaxing)
 *fill*         0x0008ffdd        0x3 00
 .rodata        0x0008ffe0      0x41c unif.o
 .rodata.str1.4
                0x000903fc       0x5d input.o
                                 0x60 (size before relaxing)
 *fill*         0x00090459        0x3 00
 .rodata.str1.4
                0x0009045c      0x12b file.o
                                0x130 (size before relaxing)
 *fill*         0x00090587        0x1 00
 .rodata.str1.4
                0x00090588       0x9d cart.o
                                 0xa8 (size before relaxing)
 *fill*         0x00090625        0x3 00
 .rodata        0x00090628        0xc cart.o
 .rodata.str1.4
                0x00090634       0x49 memory.o
                                 0x4c (size before relaxing)
 *fill*         0x0009067d        0x3 00
 .rodata.str1.4
                0x00090680       0x9e cheat.o
                                 0xa8 (size before relaxing)
 .rodata.str1.4
                0x0009071e        0x0 debug.o
                                  0x4 (size before relaxing)
 .rodata        0x0009071e       0x10 md5.o
 *fill*         0x0009072e        0x2 00
 .rodata.str1.4
                0x00090730      0x1ed vsuni.o
                                0x204 (size before relaxing)
 *fill*         0x0009091d        0x3 00
 .rodata.str1.4
                0x00090920        0x9 palette.o
                                 0x10 (size before relaxing)
 *fill*         0x00090929        0x7 00
 .rodata        0x00090930       0x80 palette.o
 .rodata        0x000909b0      0x438 mappers/16.o
 .rodata        0x00090de8       0x20 mappers/43.o
 .rodata        0x00090e08       0x10 mappers/85.o
 .rodata        0x00090e18      0x180 mappers/emu2413.o
 .rodata.str1.4
                0x00090f98        0xd mappers/simple.o
                                 0x10 (size before relaxing)
 *fill*         0x00090fa5        0x3 00
 .rodata.str1.4
                0x00090fa8       0x19 boards/112.o
                                 0x2c (size before relaxing)
 *fill*         0x00090fc1        0x3 00
 .rodata.str1.4
                0x00090fc4        0xe boards/117.o
                                 0x28 (size before relaxing)
 *fill*         0x00090fd2        0x2 00
 .rodata.str1.4
                0x00090fd4        0x5 boards/164.o
                                  0xc (size before relaxing)
 *fill*         0x00090fd9        0x3 00
 .rodata.str1.4
                0x00090fdc       0x13 boards/183.o
                                 0x24 (size before relaxing)
 .rodata.str1.4
                0x00090fef        0x0 boards/185.o
                                  0x8 (size before relaxing)
 *fill*         0x00090fef        0x1 00
 .rodata.str1.4
                0x00090ff0        0x6 boards/186.o
                                 0x18 (size before relaxing)
 *fill*         0x00090ff6        0x2 00
 .rodata.str1.4
                0x00090ff8        0x5 boards/187.o
                                  0x8 (size before relaxing)
 .rodata        0x00090ffd        0x4 boards/187.o
 .rodata.str1.4
                0x00091001        0x0 boards/189.o
                                  0x8 (size before relaxing)
 .rodata.str1.4
                0x00091001        0x0 boards/208.o
                                  0x8 (size before relaxing)
 .rodata        0x00091001      0x100 boards/208.o
 .rodata.str1.4
                0x00091101        0x0 boards/222.o
                                 0x18 (size before relaxing)
 *fill*         0x00091101        0x3 00
 .rodata.str1.4
                0x00091104        0x7 boards/235.o
                                  0x8 (size before relaxing)
 *fill*         0x0009110b        0x1 00
 .rodata.str1.4
                0x0009110c       0x18 boards/57.o
                                 0x20 (size before relaxing)
 .rodata.str1.4
                0x00091124        0x0 boards/8157.o
                                  0x8 (size before relaxing)
 .rodata.str1.4
                0x00091124        0x6 boards/8237.o
                                 0x10 (size before relaxing)
 .rodata        0x0009112a        0x8 boards/8237.o
 .rodata.str1.4
                0x00091132        0x0 boards/88.o
                                 0x14 (size before relaxing)
 *fill*         0x00091132        0x2 00
 .rodata.str1.4
                0x00091134       0x85 boards/90.o
                                 0x98 (size before relaxing)
 *fill*         0x000911b9        0x3 00
 .rodata.str1.4
                0x000911bc        0x5 boards/95.o
                                 0x14 (size before relaxing)
 *fill*         0x000911c1        0x3 00
 .rodata.str1.4
                0x000911c4       0x1f boards/bmc13in1jy110.o
                                 0x20 (size before relaxing)
 *fill*         0x000911e3        0x1 00
 .rodata.str1.4
                0x000911e4        0xe boards/bmc42in1r.o
                                 0x10 (size before relaxing)
 .rodata.str1.4
                0x000911f2        0x0 boards/bmc64in1nr.o
                                  0x8 (size before relaxing)
 *fill*         0x000911f2        0x2 00
 .rodata.str1.4
                0x000911f4        0x7 boards/bmc70in1.o
                                 0x18 (size before relaxing)
 *fill*         0x000911fb        0x1 00
 .rodata.str1.4
                0x000911fc        0x6 boards/bmcgk192.o
                                  0x8 (size before relaxing)
 *fill*         0x00091202        0x2 00
 .rodata.str1.4
                0x00091204        0xd boards/bonza.o
                                 0x10 (size before relaxing)
 .rodata        0x00091211       0x80 boards/bonza.o
 .rodata.str1.4
                0x00091291        0x0 boards/cc21.o
                                  0x8 (size before relaxing)
 .rodata.str1.4
                0x00091291        0x0 boards/datalatch.o
                                  0x8 (size before relaxing)
 .rodata.str1.4
                0x00091291        0x0 boards/deirom.o
                                  0xc (size before relaxing)
 *fill*         0x00091291        0x3 00
 .rodata.str1.4
                0x00091294        0x6 boards/dream.o
                                  0x8 (size before relaxing)
 *fill*         0x0009129a        0x2 00
 .rodata.str1.4
                0x0009129c        0x6 boards/fk23c.o
                                 0x10 (size before relaxing)
 .rodata.str1.4
                0x000912a2        0x0 boards/h2288.o
                                  0x8 (size before relaxing)
 .rodata.str1.4
                0x000912a2        0x0 boards/karaoke.o
                                  0x8 (size before relaxing)
 *fill*         0x000912a2        0x2 00
 .rodata.str1.4
                0x000912a4        0x7 boards/konami-qtai.o
                                 0x18 (size before relaxing)
 .rodata.str1.4
                0x000912ab        0x0 boards/malee.o
                                  0x4 (size before relaxing)
 *fill*         0x000912ab        0x1 00
 .rodata.str1.4
                0x000912ac       0x4a boards/mmc1.o
                                 0x64 (size before relaxing)
 *fill*         0x000912f6        0x2 00
 .rodata.str1.4
                0x000912f8      0x175 boards/mmc3.o
                                0x1bc (size before relaxing)
 .rodata        0x0009146d       0x10 boards/mmc3.o
 *fill*         0x0009147d        0x3 00
 .rodata.str1.4
                0x00091480       0xad boards/mmc5.o
                                0x104 (size before relaxing)
 *fill*         0x0009152d        0x3 00
 .rodata        0x00091530       0x10 boards/mmc5.o
 .rodata.str1.4
                0x00091540        0x4 boards/n106.o
                                 0x14 (size before relaxing)
 .rodata.str1.4
                0x00091544        0x3 boards/novel.o
                                  0x4 (size before relaxing)
 .rodata.str1.4
                0x00091547        0x0 boards/sachen.o
                                  0xc (size before relaxing)
 .rodata.str1.4
                0x00091547        0x0 boards/sheroes.o
                                  0x8 (size before relaxing)
 *fill*         0x00091547        0x1 00
 .rodata.str1.4
                0x00091548       0x3c boards/sl1632.o
                                 0x64 (size before relaxing)
 .rodata.str1.4
                0x00091584        0x0 boards/sonic5.o
                                  0x8 (size before relaxing)
 .rodata.str1.4
                0x00091584        0x0 boards/subor.o
                                  0x8 (size before relaxing)
 .rodata.str1.4
                0x00091584        0x5 boards/super24.o
                                 0x10 (size before relaxing)
 *fill*         0x00091589        0x3 00
 .rodata        0x0009158c       0x20 boards/super24.o
 .rodata.str1.4
                0x000915ac        0x3 boards/supervision.o
                                  0x8 (size before relaxing)
 *fill*         0x000915af        0x1 00
 .rodata.str1.4
                0x000915b0       0x15 boards/t-262.o
                                 0x18 (size before relaxing)
 *fill*         0x000915c5        0x3 00
 .rodata.str1.4
                0x000915c8       0x11 boards/tengen.o
                                 0x38 (size before relaxing)
 .rodata.str1.4
                0x000915d9        0x0 boards/__dummy_mapper.o
                                  0x8 (size before relaxing)
 .rodata        0x000915d9      0x17a input/cursor.o
 *fill*         0x00091753        0x1 00
 .rodata        0x00091754       0x90 input/fkb.o
 .rodata.str1.4
                0x000917e4        0x8 input/bworld.o
 .rodata        0x000917ec       0xd0 input/suborkb.o
 .rodata.str1.4
                0x000918bc      0x1ae drivers/LF1000/minimal.o
                                0x1b0 (size before relaxing)
 *fill*         0x00091a6a        0x2 00
 .rodata        0x00091a6c       0x10 drivers/LF1000/minimal.o
 .rodata.str1.4
                0x00091a7c       0x4a drivers/LF1000/cpuctrl.o
                                 0x4c (size before relaxing)
 *fill*         0x00091ac6        0x2 00
 .rodata        0x00091ac8       0x18 drivers/LF1000/cpuctrl.o
 .rodata.str1.4
                0x00091ae0       0xbd drivers/LF1000/squidgehack.o
                                 0xc0 (size before relaxing)
 *fill*         0x00091b9d        0x3 00
 .rodata.str1.4
                0x00091ba0      0x3d3 drivers/LF1000/gp2x.o
                                0x3dc (size before relaxing)
 *fill*         0x00091f73        0x1 00
 .rodata.str1.4
                0x00091f74      0xb2f drivers/LF1000/main.o
                                0xb50 (size before relaxing)
 *fill*         0x00092aa3        0x1 00
 .rodata        0x00092aa4       0x78 drivers/LF1000/main.o
 .rodata.str1.4
                0x00092b1c       0x2c drivers/LF1000/gp2x-video.o
 .rodata.str1.4
                0x00092b48       0x76 drivers/LF1000/usbjoy.o
                                 0x78 (size before relaxing)
 *fill*         0x00092bbe        0x2 00
 .rodata.str1.4
                0x00092bc0      0x9da drivers/LF1000/menu.o
                                0xa20 (size before relaxing)
 *fill*         0x0009359a        0x2 00
 .rodata        0x0009359c       0x94 drivers/LF1000/menu.o
 .rodata.str1.4
                0x00093630       0xe0 drivers/LF1000/readpng.o
                                 0xe4 (size before relaxing)
 .rodata.str1.4
                0x00093710      0x452 drivers/common/cheat.o
                                0x46c (size before relaxing)
 *fill*         0x00093b62        0x2 00
 .rodata        0x00093b64       0x18 drivers/common/cheat.o
 .rodata.str1.4
                0x00093b7c        0x0 drivers/common/config.o
                                  0x8 (size before relaxing)
 .rodata.str1.4
                0x00093b7c        0x6 zlib/unzip.o
                                  0xc (size before relaxing)
 *fill*         0x00093b82        0x2 00
 .rodata        0x00093b84       0x2c zlib/unzip.o
                0x00093b84                unz_copyright
 .rodata.str1.4
                0x00093bb0       0x8d movie.o
                                 0x9c (size before relaxing)
 *fill*         0x00093c3d        0x3 00
 .rodata        0x00093c40       0x40 /opt/RidgeRun/arm-eabi-uclibc/lib/gcc/arm-linux-uclibcgnueabi/4.1.1/../../../../arm-linux-uclibcgnueabi/lib/libm.a(s_atan.o)
 .rodata        0x00093c80       0x30 /opt/RidgeRun/arm-eabi-uclibc/lib/gcc/arm-linux-uclibcgnueabi/4.1.1/../../../../arm-linux-uclibcgnueabi/lib/libm.a(e_pow.o)
 .rodata        0x00093cb0      0x188 /opt/RidgeRun/arm-eabi-uclibc/lib/gcc/arm-linux-uclibcgnueabi/4.1.1/../../../../arm-linux-uclibcgnueabi/lib/libm.a(e_rem_pio2.o)
 .rodata        0x00093e38       0x50 /opt/RidgeRun/arm-eabi-uclibc/lib/gcc/arm-linux-uclibcgnueabi/4.1.1/../../../../arm-linux-uclibcgnueabi/lib/libm.a(k_rem_pio2.o)
 .rodata.str1.4
                0x00093e88        0x6 /home/joe/work/opendidj/rootfs//usr/lib/libz.a(compress.o)
                                  0x8 (size before relaxing)
 *fill*         0x00093e8e        0x2 00
 .rodata        0x00093e90     0x2000 /home/joe/work/opendidj/rootfs//usr/lib/libz.a(crc32.o)
 .rodata        0x00095e90       0xb0 /home/joe/work/opendidj/rootfs//usr/lib/libz.a(deflate.o)
                0x00095e90                deflate_copyright
 .rodata        0x00095f40      0xa30 /home/joe/work/opendidj/rootfs//usr/lib/libz.a(trees.o)
                0x00096140                _length_code
                0x00095f40                _dist_code
 .rodata.str1.4
                0x00096970       0x7f /home/joe/work/opendidj/rootfs//usr/lib/libz.a(zutil.o)
                                 0x8c (size before relaxing)
 *fill*         0x000969ef        0x1 00
 .rodata        0x000969f0       0x28 /home/joe/work/opendidj/rootfs//usr/lib/libz.a(zutil.o)
                0x000969f0                z_errmsg
 .rodata.str1.4
                0x00096a18      0x1bf /home/joe/work/opendidj/rootfs//usr/lib/libz.a(inflate.o)
                                0x1c0 (size before relaxing)
 *fill*         0x00096bd7        0x1 00
 .rodata        0x00096bd8      0x8a6 /home/joe/work/opendidj/rootfs//usr/lib/libz.a(inflate.o)
 *fill*         0x0009747e        0x2 00
 .rodata        0x00097480      0x12c /home/joe/work/opendidj/rootfs//usr/lib/libz.a(inftrees.o)
                0x00097480                inflate_copyright
 .rodata.str1.4
                0x000975ac        0x0 /home/joe/work/opendidj/rootfs//usr/lib/libz.a(inffast.o)
                                 0x54 (size before relaxing)
 .rodata.str1.4
                0x000975ac      0x182 /home/joe/work/opendidj/rootfs//usr/lib/libpng.a(libpng12_la-png.o)
                                0x18c (size before relaxing)
 *fill*         0x0009772e        0x2 00
 .rodata        0x00097730       0xfc /home/joe/work/opendidj/rootfs//usr/lib/libpng.a(libpng12_la-png.o)
                0x00097784                png_pass_ystart
                0x0009774c                png_pass_start
                0x000977d8                png_pass_dsp_mask
                0x00097742                png_sig
                0x000977bc                png_pass_mask
                0x00097768                png_pass_inc
                0x000977a0                png_pass_yinc
                0x00097730                png_libpng_ver
 .rodata.str1.4
                0x0009782c       0x86 /home/joe/work/opendidj/rootfs//usr/lib/libpng.a(libpng12_la-pngget.o)
                                 0x88 (size before relaxing)
 *fill*         0x000978b2        0x2 00
 .rodata.str1.4
                0x000978b4      0x353 /home/joe/work/opendidj/rootfs//usr/lib/libpng.a(libpng12_la-pngread.o)
                                0x35c (size before relaxing)
 *fill*         0x00097c07        0x1 00
 .rodata.str1.4
                0x00097c08       0x9f /home/joe/work/opendidj/rootfs//usr/lib/libpng.a(libpng12_la-pngrio.o)
                                 0xa0 (size before relaxing)
 *fill*         0x00097ca7        0x1 00
 .rodata.str1.4
                0x00097ca8       0xe2 /home/joe/work/opendidj/rootfs//usr/lib/libpng.a(libpng12_la-pngrtran.o)
                                 0xe4 (size before relaxing)
 *fill*         0x00097d8a        0x2 00
 .rodata.str1.4
                0x00097d8c        0xf /home/joe/work/opendidj/rootfs//usr/lib/libpng.a(libpng12_la-pngmem.o)
                                 0x10 (size before relaxing)
 *fill*         0x00097d9b        0x1 00
 .rodata.str1.4
                0x00097d9c       0x7e /home/joe/work/opendidj/rootfs//usr/lib/libpng.a(libpng12_la-pngerror.o)
                                 0x80 (size before relaxing)
 .rodata        0x00097e1a       0x10 /home/joe/work/opendidj/rootfs//usr/lib/libpng.a(libpng12_la-pngerror.o)
 *fill*         0x00097e2a        0x2 00
 .rodata.str1.4
                0x00097e2c      0xee7 /home/joe/work/opendidj/rootfs//usr/lib/libpng.a(libpng12_la-pngrutil.o)
                                0xf18 (size before relaxing)
 *fill*         0x00098d13        0x1 00
 .rodata        0x00098d14       0x20 /home/joe/work/opendidj/rootfs//usr/lib/libpng.a(libpng12_la-pngrutil.o)
 .rodata        0x00098d34      0x300 /home/joe/work/opendidj/rootfs//usr/lib/libpng.a(libpng12_la-pngtrans.o)
 .rodata.str1.4
                0x00099034      0x4bf /home/joe/work/opendidj/rootfs//usr/lib/libpng.a(libpng12_la-pngset.o)
                                0x4c0 (size before relaxing)
 .rodata        0x000994f3      0x100 /opt/RidgeRun/arm-eabi-uclibc/lib/gcc/arm-linux-uclibcgnueabi/4.1.1/libgcc.a(_clz.o)
                0x000994f3                __clz_tab
 *fill*         0x000995f3        0x1 00
 .rodata        0x000995f4      0x300 /opt/RidgeRun/arm-eabi-uclibc/lib/gcc/arm-linux-uclibcgnueabi/4.1.1/../../../../arm-linux-uclibcgnueabi/lib/libc.a(__C_ctype_tolower.o)
                0x000995f4                __GI___C_ctype_tolower_data
                0x000995f4                __C_ctype_tolower_data
 .rodata        0x000998f4      0x300 /opt/RidgeRun/arm-eabi-uclibc/lib/gcc/arm-linux-uclibcgnueabi/4.1.1/../../../../arm-linux-uclibcgnueabi/lib/libc.a(__C_ctype_toupper.o)
                0x000998f4                __GI___C_ctype_toupper_data
                0x000998f4                __C_ctype_toupper_data
 .rodata.str1.4
                0x00099bf4        0x8 /opt/RidgeRun/arm-eabi-uclibc/lib/gcc/arm-linux-uclibcgnueabi/4.1.1/../../../../arm-linux-uclibcgnueabi/lib/libc.a(perror.o)
                                  0xc (size before relaxing)
 .rodata        0x00099bfc       0x18 /opt/RidgeRun/arm-eabi-uclibc/lib/gcc/arm-linux-uclibcgnueabi/4.1.1/../../../../arm-linux-uclibcgnueabi/lib/libc.a(_stdio.o)
 .rodata.str1.4
                0x00099c14        0x0 /opt/RidgeRun/arm-eabi-uclibc/lib/gcc/arm-linux-uclibcgnueabi/4.1.1/../../../../arm-linux-uclibcgnueabi/lib/libc.a(open_memstream.o)
                                  0x4 (size before relaxing)
 .rodata        0x00099c14       0x10 /opt/RidgeRun/arm-eabi-uclibc/lib/gcc/arm-linux-uclibcgnueabi/4.1.1/../../../../arm-linux-uclibcgnueabi/lib/libc.a(open_memstream.o)
 .rodata.str1.4
                0x00099c24        0xf /opt/RidgeRun/arm-eabi-uclibc/lib/gcc/arm-linux-uclibcgnueabi/4.1.1/../../../../arm-linux-uclibcgnueabi/lib/libc.a(vfprintf.o)
                                 0x10 (size before relaxing)
 *fill*         0x00099c33        0x1 00
 .rodata        0x00099c34       0x14 /opt/RidgeRun/arm-eabi-uclibc/lib/gcc/arm-linux-uclibcgnueabi/4.1.1/../../../../arm-linux-uclibcgnueabi/lib/libc.a(vfprintf.o)
 .rodata        0x00099c48       0x84 /opt/RidgeRun/arm-eabi-uclibc/lib/gcc/arm-linux-uclibcgnueabi/4.1.1/../../../../arm-linux-uclibcgnueabi/lib/libc.a(_ppfs_parsespec.o)
 .rodata        0x00099ccc        0xe /opt/RidgeRun/arm-eabi-uclibc/lib/gcc/arm-linux-uclibcgnueabi/4.1.1/../../../../arm-linux-uclibcgnueabi/lib/libc.a(__xpg_strerror_r.o)
 *fill*         0x00099cda        0x2 00
 .rodata        0x00099cdc      0xb5c /opt/RidgeRun/arm-eabi-uclibc/lib/gcc/arm-linux-uclibcgnueabi/4.1.1/../../../../arm-linux-uclibcgnueabi/lib/libc.a(_string_syserrmsgs.o)
                0x00099cdc                _string_syserrmsgs
 .rodata.str1.4
                0x0009a838       0x17 /opt/RidgeRun/arm-eabi-uclibc/lib/gcc/arm-linux-uclibcgnueabi/4.1.1/../../../../arm-linux-uclibcgnueabi/lib/libc.a(system.o)
                                 0x18 (size before relaxing)
 *fill*         0x0009a84f        0x1 00
 .rodata.str1.4
                0x0009a850        0xa /opt/RidgeRun/arm-eabi-uclibc/lib/gcc/arm-linux-uclibcgnueabi/4.1.1/../../../../arm-linux-uclibcgnueabi/lib/libc.a(__uClibc_main.o)
                                  0xc (size before relaxing)
 *fill*         0x0009a85a        0x2 00
 .rodata.str1.4
                0x0009a85c       0x10 /opt/RidgeRun/arm-eabi-uclibc/lib/gcc/arm-linux-uclibcgnueabi/4.1.1/../../../../arm-linux-uclibcgnueabi/lib/libc.a(libc-tls.o)
 .rodata        0x0009a86c      0x300 /opt/RidgeRun/arm-eabi-uclibc/lib/gcc/arm-linux-uclibcgnueabi/4.1.1/../../../../arm-linux-uclibcgnueabi/lib/libc.a(__C_ctype_b.o)
                0x0009a86c                __GI___C_ctype_b_data
                0x0009a86c                __C_ctype_b_data
 *fill*         0x0009ab6c        0x4 00
 .rodata        0x0009ab70       0xa8 /opt/RidgeRun/arm-eabi-uclibc/lib/gcc/arm-linux-uclibcgnueabi/4.1.1/../../../../arm-linux-uclibcgnueabi/lib/libc.a(_fpmaxtostr.o)
 .rodata        0x0009ac18        0x4 /opt/RidgeRun/arm-eabi-uclibc/lib/gcc/arm-linux-uclibcgnueabi/4.1.1/../../../../arm-linux-uclibcgnueabi/lib/libc.a(__scan_cookie.o)
 .rodata        0x0009ac1c       0x48 /opt/RidgeRun/arm-eabi-uclibc/lib/gcc/arm-linux-uclibcgnueabi/4.1.1/../../../../arm-linux-uclibcgnueabi/lib/libc.a(__psfs_parse_spec.o)
 .rodata        0x0009ac64       0x24 /opt/RidgeRun/arm-eabi-uclibc/lib/gcc/arm-linux-uclibcgnueabi/4.1.1/../../../../arm-linux-uclibcgnueabi/lib/libc.a(__psfs_do_numeric.o)
 .rodata        0x0009ac88       0x18 /opt/RidgeRun/arm-eabi-uclibc/lib/gcc/arm-linux-uclibcgnueabi/4.1.1/../../../../arm-linux-uclibcgnueabi/lib/libc.a(__strtofpmax.o)

.rodata1
 *(.rodata1)

.ARM.extab      0x0009aca0       0xb8
 *(.ARM.extab* .gnu.linkonce.armextab.*)
 .ARM.extab     0x0009aca0        0xc /opt/RidgeRun/arm-eabi-uclibc/lib/gcc/arm-linux-uclibcgnueabi/4.1.1/libgcc_eh.a(unwind-arm.o)
 .ARM.extab     0x0009acac        0xc /opt/RidgeRun/arm-eabi-uclibc/lib/gcc/arm-linux-uclibcgnueabi/4.1.1/../../../../arm-linux-uclibcgnueabi/lib/libc.a(__syscall_fcntl.o)
 .ARM.extab     0x0009acb8        0xc /opt/RidgeRun/arm-eabi-uclibc/lib/gcc/arm-linux-uclibcgnueabi/4.1.1/../../../../arm-linux-uclibcgnueabi/lib/libc.a(__syscall_fcntl64.o)
 .ARM.extab     0x0009acc4        0xc /opt/RidgeRun/arm-eabi-uclibc/lib/gcc/arm-linux-uclibcgnueabi/4.1.1/../../../../arm-linux-uclibcgnueabi/lib/libc.a(ioctl.o)
 .ARM.extab     0x0009acd0        0xc /opt/RidgeRun/arm-eabi-uclibc/lib/gcc/arm-linux-uclibcgnueabi/4.1.1/../../../../arm-linux-uclibcgnueabi/lib/libc.a(open.o)
 .ARM.extab     0x0009acdc        0xc /opt/RidgeRun/arm-eabi-uclibc/lib/gcc/arm-linux-uclibcgnueabi/4.1.1/../../../../arm-linux-uclibcgnueabi/lib/libc.a(printf.o)
 .ARM.extab     0x0009ace8        0xc /opt/RidgeRun/arm-eabi-uclibc/lib/gcc/arm-linux-uclibcgnueabi/4.1.1/../../../../arm-linux-uclibcgnueabi/lib/libc.a(fprintf.o)
 .ARM.extab     0x0009acf4        0xc /opt/RidgeRun/arm-eabi-uclibc/lib/gcc/arm-linux-uclibcgnueabi/4.1.1/../../../../arm-linux-uclibcgnueabi/lib/libc.a(snprintf.o)
 .ARM.extab     0x0009ad00        0xc /opt/RidgeRun/arm-eabi-uclibc/lib/gcc/arm-linux-uclibcgnueabi/4.1.1/../../../../arm-linux-uclibcgnueabi/lib/libc.a(asprintf.o)
 .ARM.extab     0x0009ad0c        0xc /opt/RidgeRun/arm-eabi-uclibc/lib/gcc/arm-linux-uclibcgnueabi/4.1.1/../../../../arm-linux-uclibcgnueabi/lib/libc.a(sprintf.o)
 .ARM.extab     0x0009ad18        0xc /opt/RidgeRun/arm-eabi-uclibc/lib/gcc/arm-linux-uclibcgnueabi/4.1.1/../../../../arm-linux-uclibcgnueabi/lib/libc.a(sscanf.o)
 .ARM.extab     0x0009ad24       0x10 /opt/RidgeRun/arm-eabi-uclibc/lib/gcc/arm-linux-uclibcgnueabi/4.1.1/../../../../arm-linux-uclibcgnueabi/lib/libc.a(execl.o)
 .ARM.extab     0x0009ad34       0x18 /opt/RidgeRun/arm-eabi-uclibc/lib/gcc/arm-linux-uclibcgnueabi/4.1.1/../../../../arm-linux-uclibcgnueabi/lib/libc.a(sigrestorer.o)
 .ARM.extab     0x0009ad4c        0xc /opt/RidgeRun/arm-eabi-uclibc/lib/gcc/arm-linux-uclibcgnueabi/4.1.1/../../../../arm-linux-uclibcgnueabi/lib/libc.a(getdents64.o)
                0x0009ad58                __exidx_start = .

.ARM.exidx      0x0009ad58      0x7b8
 *(.ARM.exidx* .gnu.linkonce.armexidx.*)
 .ARM.exidx     0x0009ad58        0x8 /opt/RidgeRun/arm-eabi-uclibc/lib/gcc/arm-linux-uclibcgnueabi/4.1.1/../../../../arm-linux-uclibcgnueabi/lib/libm.a(s_atan.o)
 .ARM.exidx     0x0009ad60        0x8 /opt/RidgeRun/arm-eabi-uclibc/lib/gcc/arm-linux-uclibcgnueabi/4.1.1/../../../../arm-linux-uclibcgnueabi/lib/libm.a(s_cos.o)
 .ARM.exidx     0x0009ad68        0x8 /opt/RidgeRun/arm-eabi-uclibc/lib/gcc/arm-linux-uclibcgnueabi/4.1.1/../../../../arm-linux-uclibcgnueabi/lib/libm.a(s_fabs.o)
 .ARM.exidx     0x0009ad70        0x8 /opt/RidgeRun/arm-eabi-uclibc/lib/gcc/arm-linux-uclibcgnueabi/4.1.1/../../../../arm-linux-uclibcgnueabi/lib/libm.a(s_sin.o)
 .ARM.exidx     0x0009ad78        0x8 /opt/RidgeRun/arm-eabi-uclibc/lib/gcc/arm-linux-uclibcgnueabi/4.1.1/../../../../arm-linux-uclibcgnueabi/lib/libm.a(w_log.o)
 .ARM.exidx     0x0009ad80        0x8 /opt/RidgeRun/arm-eabi-uclibc/lib/gcc/arm-linux-uclibcgnueabi/4.1.1/../../../../arm-linux-uclibcgnueabi/lib/libm.a(w_log10.o)
 .ARM.exidx     0x0009ad88        0x8 /opt/RidgeRun/arm-eabi-uclibc/lib/gcc/arm-linux-uclibcgnueabi/4.1.1/../../../../arm-linux-uclibcgnueabi/lib/libm.a(w_pow.o)
 .ARM.exidx     0x0009ad90        0x8 /opt/RidgeRun/arm-eabi-uclibc/lib/gcc/arm-linux-uclibcgnueabi/4.1.1/../../../../arm-linux-uclibcgnueabi/lib/libm.a(w_sqrt.o)
 .ARM.exidx     0x0009ad98        0x8 /opt/RidgeRun/arm-eabi-uclibc/lib/gcc/arm-linux-uclibcgnueabi/4.1.1/../../../../arm-linux-uclibcgnueabi/lib/libm.a(e_log.o)
 .ARM.exidx     0x0009ada0        0x8 /opt/RidgeRun/arm-eabi-uclibc/lib/gcc/arm-linux-uclibcgnueabi/4.1.1/../../../../arm-linux-uclibcgnueabi/lib/libm.a(e_log10.o)
 .ARM.exidx     0x0009ada8        0x8 /opt/RidgeRun/arm-eabi-uclibc/lib/gcc/arm-linux-uclibcgnueabi/4.1.1/../../../../arm-linux-uclibcgnueabi/lib/libm.a(e_pow.o)
 .ARM.exidx     0x0009adb0        0x8 /opt/RidgeRun/arm-eabi-uclibc/lib/gcc/arm-linux-uclibcgnueabi/4.1.1/../../../../arm-linux-uclibcgnueabi/lib/libm.a(e_rem_pio2.o)
 .ARM.exidx     0x0009adb8        0x8 /opt/RidgeRun/arm-eabi-uclibc/lib/gcc/arm-linux-uclibcgnueabi/4.1.1/../../../../arm-linux-uclibcgnueabi/lib/libm.a(e_sqrt.o)
 .ARM.exidx     0x0009adc0        0x8 /opt/RidgeRun/arm-eabi-uclibc/lib/gcc/arm-linux-uclibcgnueabi/4.1.1/../../../../arm-linux-uclibcgnueabi/lib/libm.a(k_cos.o)
 .ARM.exidx     0x0009adc8        0x8 /opt/RidgeRun/arm-eabi-uclibc/lib/gcc/arm-linux-uclibcgnueabi/4.1.1/../../../../arm-linux-uclibcgnueabi/lib/libm.a(k_rem_pio2.o)
 .ARM.exidx     0x0009add0        0x8 /opt/RidgeRun/arm-eabi-uclibc/lib/gcc/arm-linux-uclibcgnueabi/4.1.1/../../../../arm-linux-uclibcgnueabi/lib/libm.a(k_sin.o)
 .ARM.exidx     0x0009add8        0x8 /opt/RidgeRun/arm-eabi-uclibc/lib/gcc/arm-linux-uclibcgnueabi/4.1.1/../../../../arm-linux-uclibcgnueabi/lib/libm.a(s_floor.o)
 .ARM.exidx     0x0009ade0        0x8 /opt/RidgeRun/arm-eabi-uclibc/lib/gcc/arm-linux-uclibcgnueabi/4.1.1/../../../../arm-linux-uclibcgnueabi/lib/libm.a(s_scalbn.o)
 .ARM.exidx     0x0009ade8        0x8 /opt/RidgeRun/arm-eabi-uclibc/lib/gcc/arm-linux-uclibcgnueabi/4.1.1/../../../../arm-linux-uclibcgnueabi/lib/libm.a(s_copysign.o)
 .ARM.exidx     0x0009adf0        0x8 /opt/RidgeRun/arm-eabi-uclibc/lib/gcc/arm-linux-uclibcgnueabi/4.1.1/libgcc.a(_divdi3.o)
 .ARM.exidx     0x0009adf8        0x8 /opt/RidgeRun/arm-eabi-uclibc/lib/gcc/arm-linux-uclibcgnueabi/4.1.1/libgcc.a(_udivdi3.o)
 .ARM.exidx     0x0009ae00       0xb8 /opt/RidgeRun/arm-eabi-uclibc/lib/gcc/arm-linux-uclibcgnueabi/4.1.1/libgcc_eh.a(unwind-arm.o)
 .ARM.exidx     0x0009aeb8       0x30 /opt/RidgeRun/arm-eabi-uclibc/lib/gcc/arm-linux-uclibcgnueabi/4.1.1/libgcc_eh.a(pr-support.o)
 .ARM.exidx     0x0009aee8        0x8 /opt/RidgeRun/arm-eabi-uclibc/lib/gcc/arm-linux-uclibcgnueabi/4.1.1/../../../../arm-linux-uclibcgnueabi/lib/libc.a(raise.o)
 .ARM.exidx     0x0009aef0       0x10 /opt/RidgeRun/arm-eabi-uclibc/lib/gcc/arm-linux-uclibcgnueabi/4.1.1/../../../../arm-linux-uclibcgnueabi/lib/libc.a(__syscall_fcntl.o)
 .ARM.exidx     0x0009af00       0x10 /opt/RidgeRun/arm-eabi-uclibc/lib/gcc/arm-linux-uclibcgnueabi/4.1.1/../../../../arm-linux-uclibcgnueabi/lib/libc.a(__syscall_fcntl64.o)
 .ARM.exidx     0x0009af10        0x8 /opt/RidgeRun/arm-eabi-uclibc/lib/gcc/arm-linux-uclibcgnueabi/4.1.1/../../../../arm-linux-uclibcgnueabi/lib/libc.a(access.o)
 .ARM.exidx     0x0009af18        0x8 /opt/RidgeRun/arm-eabi-uclibc/lib/gcc/arm-linux-uclibcgnueabi/4.1.1/../../../../arm-linux-uclibcgnueabi/lib/libc.a(chdir.o)
 .ARM.exidx     0x0009af20       0x10 /opt/RidgeRun/arm-eabi-uclibc/lib/gcc/arm-linux-uclibcgnueabi/4.1.1/../../../../arm-linux-uclibcgnueabi/lib/libc.a(close.o)
 .ARM.exidx     0x0009af30        0x8 /opt/RidgeRun/arm-eabi-uclibc/lib/gcc/arm-linux-uclibcgnueabi/4.1.1/../../../../arm-linux-uclibcgnueabi/lib/libc.a(getcwd.o)
 .ARM.exidx     0x0009af38        0x8 /opt/RidgeRun/arm-eabi-uclibc/lib/gcc/arm-linux-uclibcgnueabi/4.1.1/../../../../arm-linux-uclibcgnueabi/lib/libc.a(getpagesize.o)
 .ARM.exidx     0x0009af40        0x8 /opt/RidgeRun/arm-eabi-uclibc/lib/gcc/arm-linux-uclibcgnueabi/4.1.1/../../../../arm-linux-uclibcgnueabi/lib/libc.a(gettimeofday.o)
 .ARM.exidx     0x0009af48       0x10 /opt/RidgeRun/arm-eabi-uclibc/lib/gcc/arm-linux-uclibcgnueabi/4.1.1/../../../../arm-linux-uclibcgnueabi/lib/libc.a(ioctl.o)
 .ARM.exidx     0x0009af58        0x8 /opt/RidgeRun/arm-eabi-uclibc/lib/gcc/arm-linux-uclibcgnueabi/4.1.1/../../../../arm-linux-uclibcgnueabi/lib/libc.a(longjmp.o)
 .ARM.exidx     0x0009af60        0x8 /opt/RidgeRun/arm-eabi-uclibc/lib/gcc/arm-linux-uclibcgnueabi/4.1.1/../../../../arm-linux-uclibcgnueabi/lib/libc.a(mkdir.o)
 .ARM.exidx     0x0009af68        0x8 /opt/RidgeRun/arm-eabi-uclibc/lib/gcc/arm-linux-uclibcgnueabi/4.1.1/../../../../arm-linux-uclibcgnueabi/lib/libc.a(mmap.o)
 .ARM.exidx     0x0009af70        0x8 /opt/RidgeRun/arm-eabi-uclibc/lib/gcc/arm-linux-uclibcgnueabi/4.1.1/../../../../arm-linux-uclibcgnueabi/lib/libc.a(munmap.o)
 .ARM.exidx     0x0009af78       0x18 /opt/RidgeRun/arm-eabi-uclibc/lib/gcc/arm-linux-uclibcgnueabi/4.1.1/../../../../arm-linux-uclibcgnueabi/lib/libc.a(open.o)
 .ARM.exidx     0x0009af90       0x10 /opt/RidgeRun/arm-eabi-uclibc/lib/gcc/arm-linux-uclibcgnueabi/4.1.1/../../../../arm-linux-uclibcgnueabi/lib/libc.a(read.o)
 .ARM.exidx     0x0009afa0        0x8 /opt/RidgeRun/arm-eabi-uclibc/lib/gcc/arm-linux-uclibcgnueabi/4.1.1/../../../../arm-linux-uclibcgnueabi/lib/libc.a(sigprocmask.o)
 .ARM.exidx     0x0009afa8        0x8 /opt/RidgeRun/arm-eabi-uclibc/lib/gcc/arm-linux-uclibcgnueabi/4.1.1/../../../../arm-linux-uclibcgnueabi/lib/libc.a(stat.o)
 .ARM.exidx     0x0009afb0        0x8 /opt/RidgeRun/arm-eabi-uclibc/lib/gcc/arm-linux-uclibcgnueabi/4.1.1/../../../../arm-linux-uclibcgnueabi/lib/libc.a(sync.o)
 .ARM.exidx     0x0009afb8       0x10 /opt/RidgeRun/arm-eabi-uclibc/lib/gcc/arm-linux-uclibcgnueabi/4.1.1/../../../../arm-linux-uclibcgnueabi/lib/libc.a(write.o)
 .ARM.exidx     0x0009afc8       0x10 /opt/RidgeRun/arm-eabi-uclibc/lib/gcc/arm-linux-uclibcgnueabi/4.1.1/../../../../arm-linux-uclibcgnueabi/lib/libc.a(xstatconv.o)
 .ARM.exidx     0x0009afd8        0x8 /opt/RidgeRun/arm-eabi-uclibc/lib/gcc/arm-linux-uclibcgnueabi/4.1.1/../../../../arm-linux-uclibcgnueabi/lib/libc.a(alphasort.o)
 .ARM.exidx     0x0009afe0        0x8 /opt/RidgeRun/arm-eabi-uclibc/lib/gcc/arm-linux-uclibcgnueabi/4.1.1/../../../../arm-linux-uclibcgnueabi/lib/libc.a(closedir.o)
 .ARM.exidx     0x0009afe8        0x8 /opt/RidgeRun/arm-eabi-uclibc/lib/gcc/arm-linux-uclibcgnueabi/4.1.1/../../../../arm-linux-uclibcgnueabi/lib/libc.a(opendir.o)
 .ARM.exidx     0x0009aff0        0x8 /opt/RidgeRun/arm-eabi-uclibc/lib/gcc/arm-linux-uclibcgnueabi/4.1.1/../../../../arm-linux-uclibcgnueabi/lib/libc.a(scandir.o)
 .ARM.exidx     0x0009aff8        0x8 /opt/RidgeRun/arm-eabi-uclibc/lib/gcc/arm-linux-uclibcgnueabi/4.1.1/../../../../arm-linux-uclibcgnueabi/lib/libc.a(fclose.o)
 .ARM.exidx     0x0009b000        0x8 /opt/RidgeRun/arm-eabi-uclibc/lib/gcc/arm-linux-uclibcgnueabi/4.1.1/../../../../arm-linux-uclibcgnueabi/lib/libc.a(fopen.o)
 .ARM.exidx     0x0009b008        0x8 /opt/RidgeRun/arm-eabi-uclibc/lib/gcc/arm-linux-uclibcgnueabi/4.1.1/../../../../arm-linux-uclibcgnueabi/lib/libc.a(fseeko.o)
 .ARM.exidx     0x0009b010        0x8 /opt/RidgeRun/arm-eabi-uclibc/lib/gcc/arm-linux-uclibcgnueabi/4.1.1/../../../../arm-linux-uclibcgnueabi/lib/libc.a(ftello.o)
 .ARM.exidx     0x0009b018        0x8 /opt/RidgeRun/arm-eabi-uclibc/lib/gcc/arm-linux-uclibcgnueabi/4.1.1/../../../../arm-linux-uclibcgnueabi/lib/libc.a(perror.o)
 .ARM.exidx     0x0009b020        0x8 /opt/RidgeRun/arm-eabi-uclibc/lib/gcc/arm-linux-uclibcgnueabi/4.1.1/../../../../arm-linux-uclibcgnueabi/lib/libc.a(puts.o)
 .ARM.exidx     0x0009b028        0x8 /opt/RidgeRun/arm-eabi-uclibc/lib/gcc/arm-linux-uclibcgnueabi/4.1.1/../../../../arm-linux-uclibcgnueabi/lib/libc.a(remove.o)
 .ARM.exidx     0x0009b030        0x8 /opt/RidgeRun/arm-eabi-uclibc/lib/gcc/arm-linux-uclibcgnueabi/4.1.1/../../../../arm-linux-uclibcgnueabi/lib/libc.a(rewind.o)
 .ARM.exidx     0x0009b038        0x8 /opt/RidgeRun/arm-eabi-uclibc/lib/gcc/arm-linux-uclibcgnueabi/4.1.1/../../../../arm-linux-uclibcgnueabi/lib/libc.a(printf.o)
 .ARM.exidx     0x0009b040        0x8 /opt/RidgeRun/arm-eabi-uclibc/lib/gcc/arm-linux-uclibcgnueabi/4.1.1/../../../../arm-linux-uclibcgnueabi/lib/libc.a(vsprintf.o)
 .ARM.exidx     0x0009b048        0x8 /opt/RidgeRun/arm-eabi-uclibc/lib/gcc/arm-linux-uclibcgnueabi/4.1.1/../../../../arm-linux-uclibcgnueabi/lib/libc.a(fprintf.o)
 .ARM.exidx     0x0009b050        0x8 /opt/RidgeRun/arm-eabi-uclibc/lib/gcc/arm-linux-uclibcgnueabi/4.1.1/../../../../arm-linux-uclibcgnueabi/lib/libc.a(snprintf.o)
 .ARM.exidx     0x0009b058        0x8 /opt/RidgeRun/arm-eabi-uclibc/lib/gcc/arm-linux-uclibcgnueabi/4.1.1/../../../../arm-linux-uclibcgnueabi/lib/libc.a(asprintf.o)
 .ARM.exidx     0x0009b060        0x8 /opt/RidgeRun/arm-eabi-uclibc/lib/gcc/arm-linux-uclibcgnueabi/4.1.1/../../../../arm-linux-uclibcgnueabi/lib/libc.a(sprintf.o)
 .ARM.exidx     0x0009b068        0x8 /opt/RidgeRun/arm-eabi-uclibc/lib/gcc/arm-linux-uclibcgnueabi/4.1.1/../../../../arm-linux-uclibcgnueabi/lib/libc.a(vasprintf.o)
 .ARM.exidx     0x0009b070        0x8 /opt/RidgeRun/arm-eabi-uclibc/lib/gcc/arm-linux-uclibcgnueabi/4.1.1/../../../../arm-linux-uclibcgnueabi/lib/libc.a(vsnprintf.o)
 .ARM.exidx     0x0009b078        0x8 /opt/RidgeRun/arm-eabi-uclibc/lib/gcc/arm-linux-uclibcgnueabi/4.1.1/../../../../arm-linux-uclibcgnueabi/lib/libc.a(fseeko64.o)
 .ARM.exidx     0x0009b080        0x8 /opt/RidgeRun/arm-eabi-uclibc/lib/gcc/arm-linux-uclibcgnueabi/4.1.1/../../../../arm-linux-uclibcgnueabi/lib/libc.a(ftello64.o)
 .ARM.exidx     0x0009b088        0x8 /opt/RidgeRun/arm-eabi-uclibc/lib/gcc/arm-linux-uclibcgnueabi/4.1.1/../../../../arm-linux-uclibcgnueabi/lib/libc.a(_adjust_pos.o)
 .ARM.exidx     0x0009b090        0x8 /opt/RidgeRun/arm-eabi-uclibc/lib/gcc/arm-linux-uclibcgnueabi/4.1.1/../../../../arm-linux-uclibcgnueabi/lib/libc.a(_fopen.o)
 .ARM.exidx     0x0009b098       0x18 /opt/RidgeRun/arm-eabi-uclibc/lib/gcc/arm-linux-uclibcgnueabi/4.1.1/../../../../arm-linux-uclibcgnueabi/lib/libc.a(_stdio.o)
 .ARM.exidx     0x0009b0b0        0x8 /opt/RidgeRun/arm-eabi-uclibc/lib/gcc/arm-linux-uclibcgnueabi/4.1.1/../../../../arm-linux-uclibcgnueabi/lib/libc.a(_wcommit.o)
 .ARM.exidx     0x0009b0b8       0x20 /opt/RidgeRun/arm-eabi-uclibc/lib/gcc/arm-linux-uclibcgnueabi/4.1.1/../../../../arm-linux-uclibcgnueabi/lib/libc.a(_cs_funcs.o)
 .ARM.exidx     0x0009b0d8       0x20 /opt/RidgeRun/arm-eabi-uclibc/lib/gcc/arm-linux-uclibcgnueabi/4.1.1/../../../../arm-linux-uclibcgnueabi/lib/libc.a(open_memstream.o)
 .ARM.exidx     0x0009b0f8       0x18 /opt/RidgeRun/arm-eabi-uclibc/lib/gcc/arm-linux-uclibcgnueabi/4.1.1/../../../../arm-linux-uclibcgnueabi/lib/libc.a(vfprintf.o)
 .ARM.exidx     0x0009b110        0x8 /opt/RidgeRun/arm-eabi-uclibc/lib/gcc/arm-linux-uclibcgnueabi/4.1.1/../../../../arm-linux-uclibcgnueabi/lib/libc.a(_ppfs_init.o)
 .ARM.exidx     0x0009b118        0x8 /opt/RidgeRun/arm-eabi-uclibc/lib/gcc/arm-linux-uclibcgnueabi/4.1.1/../../../../arm-linux-uclibcgnueabi/lib/libc.a(_ppfs_prepargs.o)
 .ARM.exidx     0x0009b120        0x8 /opt/RidgeRun/arm-eabi-uclibc/lib/gcc/arm-linux-uclibcgnueabi/4.1.1/../../../../arm-linux-uclibcgnueabi/lib/libc.a(_ppfs_setargs.o)
 .ARM.exidx     0x0009b128       0x10 /opt/RidgeRun/arm-eabi-uclibc/lib/gcc/arm-linux-uclibcgnueabi/4.1.1/../../../../arm-linux-uclibcgnueabi/lib/libc.a(_ppfs_parsespec.o)
 .ARM.exidx     0x0009b138        0x8 /opt/RidgeRun/arm-eabi-uclibc/lib/gcc/arm-linux-uclibcgnueabi/4.1.1/../../../../arm-linux-uclibcgnueabi/lib/libc.a(sscanf.o)
 .ARM.exidx     0x0009b140        0x8 /opt/RidgeRun/arm-eabi-uclibc/lib/gcc/arm-linux-uclibcgnueabi/4.1.1/../../../../arm-linux-uclibcgnueabi/lib/libc.a(vsscanf.o)
 .ARM.exidx     0x0009b148        0x8 /opt/RidgeRun/arm-eabi-uclibc/lib/gcc/arm-linux-uclibcgnueabi/4.1.1/../../../../arm-linux-uclibcgnueabi/lib/libc.a(ferror.o)
 .ARM.exidx     0x0009b150        0x8 /opt/RidgeRun/arm-eabi-uclibc/lib/gcc/arm-linux-uclibcgnueabi/4.1.1/../../../../arm-linux-uclibcgnueabi/lib/libc.a(fflush.o)
 .ARM.exidx     0x0009b158        0x8 /opt/RidgeRun/arm-eabi-uclibc/lib/gcc/arm-linux-uclibcgnueabi/4.1.1/../../../../arm-linux-uclibcgnueabi/lib/libc.a(fgetc.o)
 .ARM.exidx     0x0009b160        0x8 /opt/RidgeRun/arm-eabi-uclibc/lib/gcc/arm-linux-uclibcgnueabi/4.1.1/../../../../arm-linux-uclibcgnueabi/lib/libc.a(fgets.o)
 .ARM.exidx     0x0009b168        0x8 /opt/RidgeRun/arm-eabi-uclibc/lib/gcc/arm-linux-uclibcgnueabi/4.1.1/../../../../arm-linux-uclibcgnueabi/lib/libc.a(fputc.o)
 .ARM.exidx     0x0009b170        0x8 /opt/RidgeRun/arm-eabi-uclibc/lib/gcc/arm-linux-uclibcgnueabi/4.1.1/../../../../arm-linux-uclibcgnueabi/lib/libc.a(fread.o)
 .ARM.exidx     0x0009b178        0x8 /opt/RidgeRun/arm-eabi-uclibc/lib/gcc/arm-linux-uclibcgnueabi/4.1.1/../../../../arm-linux-uclibcgnueabi/lib/libc.a(fwrite.o)
 .ARM.exidx     0x0009b180        0x8 /opt/RidgeRun/arm-eabi-uclibc/lib/gcc/arm-linux-uclibcgnueabi/4.1.1/../../../../arm-linux-uclibcgnueabi/lib/libc.a(putchar.o)
 .ARM.exidx     0x0009b188        0x8 /opt/RidgeRun/arm-eabi-uclibc/lib/gcc/arm-linux-uclibcgnueabi/4.1.1/../../../../arm-linux-uclibcgnueabi/lib/libc.a(fflush_unlocked.o)
 .ARM.exidx     0x0009b190        0x8 /opt/RidgeRun/arm-eabi-uclibc/lib/gcc/arm-linux-uclibcgnueabi/4.1.1/../../../../arm-linux-uclibcgnueabi/lib/libc.a(fgetc_unlocked.o)
 .ARM.exidx     0x0009b198        0x8 /opt/RidgeRun/arm-eabi-uclibc/lib/gcc/arm-linux-uclibcgnueabi/4.1.1/../../../../arm-linux-uclibcgnueabi/lib/libc.a(fgets_unlocked.o)
 .ARM.exidx     0x0009b1a0        0x8 /opt/RidgeRun/arm-eabi-uclibc/lib/gcc/arm-linux-uclibcgnueabi/4.1.1/../../../../arm-linux-uclibcgnueabi/lib/libc.a(fputc_unlocked.o)
 .ARM.exidx     0x0009b1a8        0x8 /opt/RidgeRun/arm-eabi-uclibc/lib/gcc/arm-linux-uclibcgnueabi/4.1.1/../../../../arm-linux-uclibcgnueabi/lib/libc.a(fputs_unlocked.o)
 .ARM.exidx     0x0009b1b0        0x8 /opt/RidgeRun/arm-eabi-uclibc/lib/gcc/arm-linux-uclibcgnueabi/4.1.1/../../../../arm-linux-uclibcgnueabi/lib/libc.a(fread_unlocked.o)
 .ARM.exidx     0x0009b1b8        0x8 /opt/RidgeRun/arm-eabi-uclibc/lib/gcc/arm-linux-uclibcgnueabi/4.1.1/../../../../arm-linux-uclibcgnueabi/lib/libc.a(fwrite_unlocked.o)
 .ARM.exidx     0x0009b1c0        0x8 /opt/RidgeRun/arm-eabi-uclibc/lib/gcc/arm-linux-uclibcgnueabi/4.1.1/../../../../arm-linux-uclibcgnueabi/lib/libc.a(strcat.o)
 .ARM.exidx     0x0009b1c8        0x8 /opt/RidgeRun/arm-eabi-uclibc/lib/gcc/arm-linux-uclibcgnueabi/4.1.1/../../../../arm-linux-uclibcgnueabi/lib/libc.a(strcpy.o)
 .ARM.exidx     0x0009b1d0        0x8 /opt/RidgeRun/arm-eabi-uclibc/lib/gcc/arm-linux-uclibcgnueabi/4.1.1/../../../../arm-linux-uclibcgnueabi/lib/libc.a(strncpy.o)
 .ARM.exidx     0x0009b1d8        0x8 /opt/RidgeRun/arm-eabi-uclibc/lib/gcc/arm-linux-uclibcgnueabi/4.1.1/../../../../arm-linux-uclibcgnueabi/lib/libc.a(strnlen.o)
 .ARM.exidx     0x0009b1e0        0x8 /opt/RidgeRun/arm-eabi-uclibc/lib/gcc/arm-linux-uclibcgnueabi/4.1.1/../../../../arm-linux-uclibcgnueabi/lib/libc.a(strrchr.o)
 .ARM.exidx     0x0009b1e8        0x8 /opt/RidgeRun/arm-eabi-uclibc/lib/gcc/arm-linux-uclibcgnueabi/4.1.1/../../../../arm-linux-uclibcgnueabi/lib/libc.a(strstr.o)
 .ARM.exidx     0x0009b1f0        0x8 /opt/RidgeRun/arm-eabi-uclibc/lib/gcc/arm-linux-uclibcgnueabi/4.1.1/../../../../arm-linux-uclibcgnueabi/lib/libc.a(__glibc_strerror_r.o)
 .ARM.exidx     0x0009b1f8        0x8 /opt/RidgeRun/arm-eabi-uclibc/lib/gcc/arm-linux-uclibcgnueabi/4.1.1/../../../../arm-linux-uclibcgnueabi/lib/libc.a(__xpg_strerror_r.o)
 .ARM.exidx     0x0009b200        0x8 /opt/RidgeRun/arm-eabi-uclibc/lib/gcc/arm-linux-uclibcgnueabi/4.1.1/../../../../arm-linux-uclibcgnueabi/lib/libc.a(strcasecmp.o)
 .ARM.exidx     0x0009b208        0x8 /opt/RidgeRun/arm-eabi-uclibc/lib/gcc/arm-linux-uclibcgnueabi/4.1.1/../../../../arm-linux-uclibcgnueabi/lib/libc.a(strdup.o)
 .ARM.exidx     0x0009b210        0x8 /opt/RidgeRun/arm-eabi-uclibc/lib/gcc/arm-linux-uclibcgnueabi/4.1.1/../../../../arm-linux-uclibcgnueabi/lib/libc.a(strerror.o)
 .ARM.exidx     0x0009b218        0x8 /opt/RidgeRun/arm-eabi-uclibc/lib/gcc/arm-linux-uclibcgnueabi/4.1.1/../../../../arm-linux-uclibcgnueabi/lib/libc.a(strncasecmp.o)
 .ARM.exidx     0x0009b220        0x8 /opt/RidgeRun/arm-eabi-uclibc/lib/gcc/arm-linux-uclibcgnueabi/4.1.1/../../../../arm-linux-uclibcgnueabi/lib/libc.a(isatty.o)
 .ARM.exidx     0x0009b228        0x8 /opt/RidgeRun/arm-eabi-uclibc/lib/gcc/arm-linux-uclibcgnueabi/4.1.1/../../../../arm-linux-uclibcgnueabi/lib/libc.a(tcgetattr.o)
 .ARM.exidx     0x0009b230        0x8 /opt/RidgeRun/arm-eabi-uclibc/lib/gcc/arm-linux-uclibcgnueabi/4.1.1/../../../../arm-linux-uclibcgnueabi/lib/libc.a(signal.o)
 .ARM.exidx     0x0009b238       0x18 /opt/RidgeRun/arm-eabi-uclibc/lib/gcc/arm-linux-uclibcgnueabi/4.1.1/../../../../arm-linux-uclibcgnueabi/lib/libc.a(sigsetops.o)
 .ARM.exidx     0x0009b250        0x8 /opt/RidgeRun/arm-eabi-uclibc/lib/gcc/arm-linux-uclibcgnueabi/4.1.1/../../../../arm-linux-uclibcgnueabi/lib/libc.a(malloc.o)
 .ARM.exidx     0x0009b258        0x8 /opt/RidgeRun/arm-eabi-uclibc/lib/gcc/arm-linux-uclibcgnueabi/4.1.1/../../../../arm-linux-uclibcgnueabi/lib/libc.a(calloc.o)
 .ARM.exidx     0x0009b260        0x8 /opt/RidgeRun/arm-eabi-uclibc/lib/gcc/arm-linux-uclibcgnueabi/4.1.1/../../../../arm-linux-uclibcgnueabi/lib/libc.a(free.o)
 .ARM.exidx     0x0009b268        0x8 /opt/RidgeRun/arm-eabi-uclibc/lib/gcc/arm-linux-uclibcgnueabi/4.1.1/../../../../arm-linux-uclibcgnueabi/lib/libc.a(realloc.o)
 .ARM.exidx     0x0009b270        0x8 /opt/RidgeRun/arm-eabi-uclibc/lib/gcc/arm-linux-uclibcgnueabi/4.1.1/../../../../arm-linux-uclibcgnueabi/lib/libc.a(heap_alloc.o)
 .ARM.exidx     0x0009b278        0x8 /opt/RidgeRun/arm-eabi-uclibc/lib/gcc/arm-linux-uclibcgnueabi/4.1.1/../../../../arm-linux-uclibcgnueabi/lib/libc.a(heap_alloc_at.o)
 .ARM.exidx     0x0009b280       0x18 /opt/RidgeRun/arm-eabi-uclibc/lib/gcc/arm-linux-uclibcgnueabi/4.1.1/../../../../arm-linux-uclibcgnueabi/lib/libc.a(heap_free.o)
 .ARM.exidx     0x0009b298        0x8 /opt/RidgeRun/arm-eabi-uclibc/lib/gcc/arm-linux-uclibcgnueabi/4.1.1/../../../../arm-linux-uclibcgnueabi/lib/libc.a(abort.o)
 .ARM.exidx     0x0009b2a0       0x18 /opt/RidgeRun/arm-eabi-uclibc/lib/gcc/arm-linux-uclibcgnueabi/4.1.1/../../../../arm-linux-uclibcgnueabi/lib/libc.a(system.o)
 .ARM.exidx     0x0009b2b8        0x8 /opt/RidgeRun/arm-eabi-uclibc/lib/gcc/arm-linux-uclibcgnueabi/4.1.1/../../../../arm-linux-uclibcgnueabi/lib/libc.a(atol.o)
 .ARM.exidx     0x0009b2c0        0x8 /opt/RidgeRun/arm-eabi-uclibc/lib/gcc/arm-linux-uclibcgnueabi/4.1.1/../../../../arm-linux-uclibcgnueabi/lib/libc.a(strtol.o)
 .ARM.exidx     0x0009b2c8        0x8 /opt/RidgeRun/arm-eabi-uclibc/lib/gcc/arm-linux-uclibcgnueabi/4.1.1/../../../../arm-linux-uclibcgnueabi/lib/libc.a(_stdlib_strto_l.o)
 .ARM.exidx     0x0009b2d0        0x8 /opt/RidgeRun/arm-eabi-uclibc/lib/gcc/arm-linux-uclibcgnueabi/4.1.1/../../../../arm-linux-uclibcgnueabi/lib/libc.a(qsort.o)
 .ARM.exidx     0x0009b2d8        0x8 /opt/RidgeRun/arm-eabi-uclibc/lib/gcc/arm-linux-uclibcgnueabi/4.1.1/../../../../arm-linux-uclibcgnueabi/lib/libc.a(exit.o)
 .ARM.exidx     0x0009b2e0        0x8 /opt/RidgeRun/arm-eabi-uclibc/lib/gcc/arm-linux-uclibcgnueabi/4.1.1/../../../../arm-linux-uclibcgnueabi/lib/libc.a(execl.o)
 .ARM.exidx     0x0009b2e8        0x8 /opt/RidgeRun/arm-eabi-uclibc/lib/gcc/arm-linux-uclibcgnueabi/4.1.1/../../../../arm-linux-uclibcgnueabi/lib/libc.a(usleep.o)
 .ARM.exidx     0x0009b2f0       0x20 /opt/RidgeRun/arm-eabi-uclibc/lib/gcc/arm-linux-uclibcgnueabi/4.1.1/../../../../arm-linux-uclibcgnueabi/lib/libc.a(__uClibc_main.o)
 .ARM.exidx     0x0009b310        0x8 /opt/RidgeRun/arm-eabi-uclibc/lib/gcc/arm-linux-uclibcgnueabi/4.1.1/../../../../arm-linux-uclibcgnueabi/lib/libc.a(weaks.o)
 .ARM.exidx     0x0009b318       0x18 /opt/RidgeRun/arm-eabi-uclibc/lib/gcc/arm-linux-uclibcgnueabi/4.1.1/../../../../arm-linux-uclibcgnueabi/lib/libc.a(libc-cancellation.o)
 .ARM.exidx     0x0009b330       0x10 /opt/RidgeRun/arm-eabi-uclibc/lib/gcc/arm-linux-uclibcgnueabi/4.1.1/../../../../arm-linux-uclibcgnueabi/lib/libc.a(libc-tls.o)
 .ARM.exidx     0x0009b340        0x8 /opt/RidgeRun/arm-eabi-uclibc/lib/gcc/arm-linux-uclibcgnueabi/4.1.1/../../../../arm-linux-uclibcgnueabi/lib/libc.a(sigaction.o)
 .ARM.exidx     0x0009b348       0x10 /opt/RidgeRun/arm-eabi-uclibc/lib/gcc/arm-linux-uclibcgnueabi/4.1.1/../../../../arm-linux-uclibcgnueabi/lib/libc.a(sigrestorer.o)
 .ARM.exidx     0x0009b358        0x8 /opt/RidgeRun/arm-eabi-uclibc/lib/gcc/arm-linux-uclibcgnueabi/4.1.1/../../../../arm-linux-uclibcgnueabi/lib/libc.a(__syscall_rt_sigaction.o)
 .ARM.exidx     0x0009b360        0x8 /opt/RidgeRun/arm-eabi-uclibc/lib/gcc/arm-linux-uclibcgnueabi/4.1.1/../../../../arm-linux-uclibcgnueabi/lib/libc.a(_exit.o)
 .ARM.exidx     0x0009b368        0x8 /opt/RidgeRun/arm-eabi-uclibc/lib/gcc/arm-linux-uclibcgnueabi/4.1.1/../../../../arm-linux-uclibcgnueabi/lib/libc.a(execve.o)
 .ARM.exidx     0x0009b370        0x8 /opt/RidgeRun/arm-eabi-uclibc/lib/gcc/arm-linux-uclibcgnueabi/4.1.1/../../../../arm-linux-uclibcgnueabi/lib/libc.a(fstat.o)
 .ARM.exidx     0x0009b378        0x8 /opt/RidgeRun/arm-eabi-uclibc/lib/gcc/arm-linux-uclibcgnueabi/4.1.1/../../../../arm-linux-uclibcgnueabi/lib/libc.a(getegid.o)
 .ARM.exidx     0x0009b380        0x8 /opt/RidgeRun/arm-eabi-uclibc/lib/gcc/arm-linux-uclibcgnueabi/4.1.1/../../../../arm-linux-uclibcgnueabi/lib/libc.a(geteuid.o)
 .ARM.exidx     0x0009b388        0x8 /opt/RidgeRun/arm-eabi-uclibc/lib/gcc/arm-linux-uclibcgnueabi/4.1.1/../../../../arm-linux-uclibcgnueabi/lib/libc.a(getgid.o)
 .ARM.exidx     0x0009b390        0x8 /opt/RidgeRun/arm-eabi-uclibc/lib/gcc/arm-linux-uclibcgnueabi/4.1.1/../../../../arm-linux-uclibcgnueabi/lib/libc.a(getuid.o)
 .ARM.exidx     0x0009b398        0x8 /opt/RidgeRun/arm-eabi-uclibc/lib/gcc/arm-linux-uclibcgnueabi/4.1.1/../../../../arm-linux-uclibcgnueabi/lib/libc.a(llseek.o)
 .ARM.exidx     0x0009b3a0       0x10 /opt/RidgeRun/arm-eabi-uclibc/lib/gcc/arm-linux-uclibcgnueabi/4.1.1/../../../../arm-linux-uclibcgnueabi/lib/libc.a(nanosleep.o)
 .ARM.exidx     0x0009b3b0        0x8 /opt/RidgeRun/arm-eabi-uclibc/lib/gcc/arm-linux-uclibcgnueabi/4.1.1/../../../../arm-linux-uclibcgnueabi/lib/libc.a(rmdir.o)
 .ARM.exidx     0x0009b3b8        0x8 /opt/RidgeRun/arm-eabi-uclibc/lib/gcc/arm-linux-uclibcgnueabi/4.1.1/../../../../arm-linux-uclibcgnueabi/lib/libc.a(sbrk.o)
 .ARM.exidx     0x0009b3c0        0x8 /opt/RidgeRun/arm-eabi-uclibc/lib/gcc/arm-linux-uclibcgnueabi/4.1.1/../../../../arm-linux-uclibcgnueabi/lib/libc.a(unlink.o)
 .ARM.exidx     0x0009b3c8        0x8 /opt/RidgeRun/arm-eabi-uclibc/lib/gcc/arm-linux-uclibcgnueabi/4.1.1/../../../../arm-linux-uclibcgnueabi/lib/libc.a(waitpid.o)
 .ARM.exidx     0x0009b3d0        0x8 /opt/RidgeRun/arm-eabi-uclibc/lib/gcc/arm-linux-uclibcgnueabi/4.1.1/../../../../arm-linux-uclibcgnueabi/lib/libc.a(readdir.o)
 .ARM.exidx     0x0009b3d8        0x8 /opt/RidgeRun/arm-eabi-uclibc/lib/gcc/arm-linux-uclibcgnueabi/4.1.1/../../../../arm-linux-uclibcgnueabi/lib/libc.a(wcrtomb.o)
 .ARM.exidx     0x0009b3e0        0x8 /opt/RidgeRun/arm-eabi-uclibc/lib/gcc/arm-linux-uclibcgnueabi/4.1.1/../../../../arm-linux-uclibcgnueabi/lib/libc.a(wcsrtombs.o)
 .ARM.exidx     0x0009b3e8        0x8 /opt/RidgeRun/arm-eabi-uclibc/lib/gcc/arm-linux-uclibcgnueabi/4.1.1/../../../../arm-linux-uclibcgnueabi/lib/libc.a(wcsnrtombs.o)
 .ARM.exidx     0x0009b3f0        0x8 /opt/RidgeRun/arm-eabi-uclibc/lib/gcc/arm-linux-uclibcgnueabi/4.1.1/../../../../arm-linux-uclibcgnueabi/lib/libc.a(_READ.o)
 .ARM.exidx     0x0009b3f8        0x8 /opt/RidgeRun/arm-eabi-uclibc/lib/gcc/arm-linux-uclibcgnueabi/4.1.1/../../../../arm-linux-uclibcgnueabi/lib/libc.a(_WRITE.o)
 .ARM.exidx     0x0009b400        0x8 /opt/RidgeRun/arm-eabi-uclibc/lib/gcc/arm-linux-uclibcgnueabi/4.1.1/../../../../arm-linux-uclibcgnueabi/lib/libc.a(_fwrite.o)
 .ARM.exidx     0x0009b408        0x8 /opt/RidgeRun/arm-eabi-uclibc/lib/gcc/arm-linux-uclibcgnueabi/4.1.1/../../../../arm-linux-uclibcgnueabi/lib/libc.a(_rfill.o)
 .ARM.exidx     0x0009b410        0x8 /opt/RidgeRun/arm-eabi-uclibc/lib/gcc/arm-linux-uclibcgnueabi/4.1.1/../../../../arm-linux-uclibcgnueabi/lib/libc.a(_trans2r.o)
 .ARM.exidx     0x0009b418        0x8 /opt/RidgeRun/arm-eabi-uclibc/lib/gcc/arm-linux-uclibcgnueabi/4.1.1/../../../../arm-linux-uclibcgnueabi/lib/libc.a(_trans2w.o)
 .ARM.exidx     0x0009b420        0x8 /opt/RidgeRun/arm-eabi-uclibc/lib/gcc/arm-linux-uclibcgnueabi/4.1.1/../../../../arm-linux-uclibcgnueabi/lib/libc.a(_load_inttype.o)
 .ARM.exidx     0x0009b428        0x8 /opt/RidgeRun/arm-eabi-uclibc/lib/gcc/arm-linux-uclibcgnueabi/4.1.1/../../../../arm-linux-uclibcgnueabi/lib/libc.a(_store_inttype.o)
 .ARM.exidx     0x0009b430        0x8 /opt/RidgeRun/arm-eabi-uclibc/lib/gcc/arm-linux-uclibcgnueabi/4.1.1/../../../../arm-linux-uclibcgnueabi/lib/libc.a(_uintmaxtostr.o)
 .ARM.exidx     0x0009b438        0x8 /opt/RidgeRun/arm-eabi-uclibc/lib/gcc/arm-linux-uclibcgnueabi/4.1.1/../../../../arm-linux-uclibcgnueabi/lib/libc.a(_fpmaxtostr.o)
 .ARM.exidx     0x0009b440        0x8 /opt/RidgeRun/arm-eabi-uclibc/lib/gcc/arm-linux-uclibcgnueabi/4.1.1/../../../../arm-linux-uclibcgnueabi/lib/libc.a(fopencookie.o)
 .ARM.exidx     0x0009b448       0x18 /opt/RidgeRun/arm-eabi-uclibc/lib/gcc/arm-linux-uclibcgnueabi/4.1.1/../../../../arm-linux-uclibcgnueabi/lib/libc.a(vfscanf.o)
 .ARM.exidx     0x0009b460       0x18 /opt/RidgeRun/arm-eabi-uclibc/lib/gcc/arm-linux-uclibcgnueabi/4.1.1/../../../../arm-linux-uclibcgnueabi/lib/libc.a(__scan_cookie.o)
 .ARM.exidx     0x0009b478        0x8 /opt/RidgeRun/arm-eabi-uclibc/lib/gcc/arm-linux-uclibcgnueabi/4.1.1/../../../../arm-linux-uclibcgnueabi/lib/libc.a(__psfs_parse_spec.o)
 .ARM.exidx     0x0009b480        0x8 /opt/RidgeRun/arm-eabi-uclibc/lib/gcc/arm-linux-uclibcgnueabi/4.1.1/../../../../arm-linux-uclibcgnueabi/lib/libc.a(__psfs_do_numeric.o)
 .ARM.exidx     0x0009b488        0x8 /opt/RidgeRun/arm-eabi-uclibc/lib/gcc/arm-linux-uclibcgnueabi/4.1.1/../../../../arm-linux-uclibcgnueabi/lib/libc.a(memchr.o)
 .ARM.exidx     0x0009b490        0x8 /opt/RidgeRun/arm-eabi-uclibc/lib/gcc/arm-linux-uclibcgnueabi/4.1.1/../../../../arm-linux-uclibcgnueabi/lib/libc.a(mempcpy.o)
 .ARM.exidx     0x0009b498        0x8 /opt/RidgeRun/arm-eabi-uclibc/lib/gcc/arm-linux-uclibcgnueabi/4.1.1/../../../../arm-linux-uclibcgnueabi/lib/libc.a(memrchr.o)
 .ARM.exidx     0x0009b4a0        0x8 /opt/RidgeRun/arm-eabi-uclibc/lib/gcc/arm-linux-uclibcgnueabi/4.1.1/../../../../arm-linux-uclibcgnueabi/lib/libc.a(strchr.o)
 .ARM.exidx     0x0009b4a8        0x8 /opt/RidgeRun/arm-eabi-uclibc/lib/gcc/arm-linux-uclibcgnueabi/4.1.1/../../../../arm-linux-uclibcgnueabi/lib/libc.a(sigjmp.o)
 .ARM.exidx     0x0009b4b0        0x8 /opt/RidgeRun/arm-eabi-uclibc/lib/gcc/arm-linux-uclibcgnueabi/4.1.1/../../../../arm-linux-uclibcgnueabi/lib/libc.a(_stdlib_strto_ll.o)
 .ARM.exidx     0x0009b4b8        0x8 /opt/RidgeRun/arm-eabi-uclibc/lib/gcc/arm-linux-uclibcgnueabi/4.1.1/../../../../arm-linux-uclibcgnueabi/lib/libc.a(__strtofpmax.o)
 .ARM.exidx     0x0009b4c0       0x10 /opt/RidgeRun/arm-eabi-uclibc/lib/gcc/arm-linux-uclibcgnueabi/4.1.1/../../../../arm-linux-uclibcgnueabi/lib/libc.a(dl-support.o)
 .ARM.exidx     0x0009b4d0        0x8 /opt/RidgeRun/arm-eabi-uclibc/lib/gcc/arm-linux-uclibcgnueabi/4.1.1/../../../../arm-linux-uclibcgnueabi/lib/libc.a(brk.o)
 .ARM.exidx     0x0009b4d8        0x8 /opt/RidgeRun/arm-eabi-uclibc/lib/gcc/arm-linux-uclibcgnueabi/4.1.1/../../../../arm-linux-uclibcgnueabi/lib/libc.a(__syscall_error.o)
 .ARM.exidx     0x0009b4e0        0x8 /opt/RidgeRun/arm-eabi-uclibc/lib/gcc/arm-linux-uclibcgnueabi/4.1.1/../../../../arm-linux-uclibcgnueabi/lib/libc.a(getdents.o)
 .ARM.exidx     0x0009b4e8        0x8 /opt/RidgeRun/arm-eabi-uclibc/lib/gcc/arm-linux-uclibcgnueabi/4.1.1/../../../../arm-linux-uclibcgnueabi/lib/libc.a(getdents64.o)
 .ARM.exidx     0x0009b4f0        0x8 /opt/RidgeRun/arm-eabi-uclibc/lib/gcc/arm-linux-uclibcgnueabi/4.1.1/../../../../arm-linux-uclibcgnueabi/lib/libc.a(wait4.o)
 .ARM.exidx     0x0009b4f8        0x8 /opt/RidgeRun/arm-eabi-uclibc/lib/gcc/arm-linux-uclibcgnueabi/4.1.1/../../../../arm-linux-uclibcgnueabi/lib/libc.a(mbrtowc.o)
 .ARM.exidx     0x0009b500        0x8 /opt/RidgeRun/arm-eabi-uclibc/lib/gcc/arm-linux-uclibcgnueabi/4.1.1/../../../../arm-linux-uclibcgnueabi/lib/libc.a(mbsnrtowcs.o)
 .ARM.exidx     0x0009b508        0x8 /opt/RidgeRun/arm-eabi-uclibc/lib/gcc/arm-linux-uclibcgnueabi/4.1.1/../../../../arm-linux-uclibcgnueabi/lib/libc.a(ungetc.o)
                0x0009b510                __exidx_end = .

.eh_frame_hdr
 *(.eh_frame_hdr)

.eh_frame       0x0009b510        0x4
 *(.eh_frame)
 .eh_frame      0x0009b510        0x4 /opt/RidgeRun/arm-eabi-uclibc/lib/gcc/arm-linux-uclibcgnueabi/4.1.1/crtend.o

.gcc_except_table
 *(.gcc_except_table .gcc_except_table.*)
                0x0009b514                . = (ALIGN (0x8000) - ((0x8000 - .) & 0x7fff))
                0x000a3514                . = (0x8000 DATA_SEGMENT_ALIGN 0x1000)

.eh_frame
 *(.eh_frame)

.gcc_except_table
 *(.gcc_except_table .gcc_except_table.*)

.tdata
 *(.tdata .tdata.* .gnu.linkonce.td.*)

.tbss           0x000a3514        0x8
 *(.tbss .tbss.* .gnu.linkonce.tb.*)
 .tbss          0x000a3514        0x8 /opt/RidgeRun/arm-eabi-uclibc/lib/gcc/arm-linux-uclibcgnueabi/4.1.1/../../../../arm-linux-uclibcgnueabi/lib/libc.a(errno.o)
                0x000a3518                _h_errno
                0x000a3514                errno
                0x000a3518                h_errno
                0x000a3514                _errno
 *(.tcommon)

.preinit_array  0x000a3514        0x0
                0x000a3514                PROVIDE (__preinit_array_start, .)
 *(.preinit_array)
                0x000a3514                PROVIDE (__preinit_array_end, .)

.init_array     0x000a3514        0x4
                0x000a3514                PROVIDE (__init_array_start, .)
 *(SORT(.init_array.*))
 *(.init_array)
 .init_array    0x000a3514        0x4 /opt/RidgeRun/arm-eabi-uclibc/lib/gcc/arm-linux-uclibcgnueabi/4.1.1/crtbeginT.o
                0x000a3518                PROVIDE (__init_array_end, .)

.fini_array     0x000a3518        0x4
                0x000a3518                PROVIDE (__fini_array_start, .)
 *(.fini_array)
 .fini_array    0x000a3518        0x4 /opt/RidgeRun/arm-eabi-uclibc/lib/gcc/arm-linux-uclibcgnueabi/4.1.1/crtbeginT.o
 *(SORT(.fini_array.*))
                0x000a351c                PROVIDE (__fini_array_end, .)

.ctors
 *crtbegin*.o(.ctors)
 *(EXCLUDE_FILE(*crtend*.o) .ctors)
 *(SORT(.ctors.*))
 *(.ctors)

.dtors
 *crtbegin*.o(.dtors)
 *(EXCLUDE_FILE(*crtend*.o) .dtors)
 *(SORT(.dtors.*))
 *(.dtors)

.jcr            0x000a351c        0x4
 *(.jcr)
 .jcr           0x000a351c        0x4 /opt/RidgeRun/arm-eabi-uclibc/lib/gcc/arm-linux-uclibcgnueabi/4.1.1/crtend.o

.data.rel.ro
 *(.data.rel.ro.local* .gnu.linkonce.d.rel.ro.local.*)
 *(.data.rel.ro* .gnu.linkonce.d.rel.ro.*)

.dynamic
 *(.dynamic)
                0x000a3520                . = (. DATA_SEGMENT_RELRO_END 0x0)

.got            0x000a3520       0xb0
 *(.got.plt)
 .got.plt       0x000a3520        0xc drivers/LF1000/minimal.o
                0x000a3520                _GLOBAL_OFFSET_TABLE_
 *(.got)
 .got           0x000a352c       0xa4 drivers/LF1000/minimal.o

.data           0x000a35d0     0x47cc
                0x000a35d0                __data_start = .
 *(.data .data.* .gnu.linkonce.d.*)
 .data          0x000a35d0        0x4 /opt/RidgeRun/arm-eabi-uclibc/lib/gcc/arm-linux-uclibcgnueabi/4.1.1/../../../../arm-linux-uclibcgnueabi/lib/crt1.o
                0x000a35d0                data_start
 .data          0x000a35d4        0x4 /opt/RidgeRun/arm-eabi-uclibc/lib/gcc/arm-linux-uclibcgnueabi/4.1.1/crtbeginT.o
                0x000a35d4                __dso_handle
 .data          0x000a35d8       0xac fce.o
                0x000a35dc                FCEUPPU_STATEINFO
                0x000a35d8                ppudead
 .data          0x000a3684        0x8 video.o
 .data          0x000a368c      0x8b8 svga.o
                0x000a368c                fontdata2
 .data          0x000a3f44       0x14 sound.o
 .data          0x000a3f58       0x3c nsf.o
 .data          0x000a3f94      0x6d8 ines.o
                0x000a3f94                MapInitTab
 .data          0x000a466c      0x1c4 state.o
                0x000a4738                SFSND
                0x000a46cc                SFCPUC
                0x000a466c                SFCPU
 .data          0x000a4830       0x80 input.o
                0x000a4830                FCEUCTRL_STATEINFO
 .data          0x000a48b0        0x4 cart.o
                0x000a48b0                VPageR
 .data          0x000a48b4       0x40 md5.o
 *fill*         0x000a48f4        0x4 00
 .data          0x000a48f8      0x610 vsuni.o
                0x000a48f8                VSUniGames
                0x000a4e98                FCEUVSUNI_STATEINFO
 .data          0x000a4f08      0x400 palette.o
                0x000a5208                unvpalette
                0x000a521d                palette
                0x000a4f08                rp2c04001
                0x000a5088                rp2c04003
                0x000a4fc8                rp2c04002
                0x000a5148                rp2c05004
 .data          0x000a5308        0x4 mappers/80.o
 .data          0x000a530c        0x8 mappers/emu2413.o
 .data          0x000a5314       0x30 boards/112.o
 .data          0x000a5344       0x48 boards/117.o
 .data          0x000a538c       0x24 boards/164.o
 .data          0x000a53b0       0x48 boards/183.o
 .data          0x000a53f8       0x18 boards/185.o
 .data          0x000a5410       0x24 boards/186.o
 .data          0x000a5434       0x3c boards/222.o
 .data          0x000a5470       0x18 boards/235.o
 .data          0x000a5488       0x24 boards/57.o
 .data          0x000a54ac       0x18 boards/8157.o
 .data          0x000a54c4       0x30 boards/88.o
 .data          0x000a54f4       0xd8 boards/90.o
 .data          0x000a55cc       0x34 boards/95.o
 .data          0x000a5600       0x24 boards/bmc42in1r.o
 .data          0x000a5624       0x18 boards/bmc64in1nr.o
 .data          0x000a563c       0x48 boards/bmc70in1.o
 .data          0x000a5684       0x24 boards/bonza.o
 .data          0x000a56a8       0x24 boards/deirom.o
 .data          0x000a56cc       0x24 boards/konami-qtai.o
 .data          0x000a56f0       0x74 boards/mmc3.o
                0x000a56f0                m114_perm
 .data          0x000a5764      0x160 boards/mmc5.o
                0x000a5764                MMC5CartList
 .data          0x000a58c4       0x30 boards/n106.o
 .data          0x000a58f4       0x90 boards/sl1632.o
 .data          0x000a5984       0x18 boards/subor.o
 .data          0x000a599c       0x30 boards/t-262.o
 .data          0x000a59cc       0x6c boards/tengen.o
 .data          0x000a5a38       0x18 boards/__dummy_mapper.o
 .data          0x000a5a50       0x30 input/zapper.o
 .data          0x000a5a80       0x18 input/powerpad.o
 .data          0x000a5a98       0x30 input/arkanoid.o
 .data          0x000a5ac8       0x18 input/shadow.o
 .data          0x000a5ae0       0x18 input/fkb.o
 .data          0x000a5af8       0x18 input/hypershot.o
 .data          0x000a5b10       0x18 input/mahjong.o
 .data          0x000a5b28       0x18 input/oekakids.o
 .data          0x000a5b40       0x18 input/ftrainer.o
 .data          0x000a5b58       0x18 input/quiz.o
 .data          0x000a5b70       0x18 input/toprider.o
 .data          0x000a5b88       0x18 input/bworld.o
 .data          0x000a5ba0       0x18 input/suborkb.o
 .data          0x000a5bb8      0x120 drivers/LF1000/cpuctrl.o
 .data          0x000a5cd8      0x13c drivers/LF1000/gp2x.o
                0x000a5d98                DriverUsage
                0x000a5cd8                DriverConfig
                0x000a5d9c                DriverArgs
 .data          0x000a5e14      0x214 drivers/LF1000/main.o
                0x000a5e28                erendlinev
                0x000a5e14                ntschue
                0x000a5e20                srendlinev
                0x000a5e1c                soundvol
                0x000a5e18                ntsctint
 .data          0x000a6028        0x4 drivers/LF1000/unix-netplay.o
                0x000a6028                Port
 .data          0x000a602c       0x90 drivers/LF1000/menu.o
 .data          0x000a60bc      0xc00 drivers/LF1000/fonts.o
                0x000a64bc                fontdata6x8
                0x000a60bc                fontdata8x8
 .data          0x000a6cbc       0x90 drivers/common/cheat.o
 .data          0x000a6d4c        0x4 ppu.o
                0x000a6d4c                maxsprites
 .data          0x000a6d50       0x58 movie.o
                0x000a6d50                movie_readonly
                0x000a6d54                FCEUMOV_STATEINFO
 *fill*         0x000a6da8        0x8 00
 .data          0x000a6db0      0xc70 ncpu.o
                0x000a79f4                MapIRQHook
                0x000a79f0                pc_base
                0x000a79f8                timestamp
                0x000a71f0                RAM
                0x000a71b0                nes_registers
                0x000a79fc                X
 .data          0x000a7a20       0x3c /home/joe/work/opendidj/rootfs//usr/lib/libz.a(trees.o)
 .data          0x000a7a5c       0x69 /home/joe/work/opendidj/rootfs//usr/lib/libpng.a(libpng12_la-png.o)
                0x000a7abb                png_tRNS
                0x000a7a89                png_iTXt
                0x000a7a66                png_IEND
                0x000a7a7f                png_hIST
                0x000a7a7a                png_gAMA
                0x000a7a70                png_bKGD
                0x000a7aa7                png_sPLT
                0x000a7aa2                png_sBIT
                0x000a7a98                png_sCAL
                0x000a7a6b                png_PLTE
                0x000a7a84                png_iCCP
                0x000a7ac0                png_zTXt
                0x000a7a5c                png_IHDR
                0x000a7ab6                png_tIME
                0x000a7a75                png_cHRM
                0x000a7a93                png_pCAL
                0x000a7aac                png_sRGB
                0x000a7ab1                png_tEXt
                0x000a7a9d                png_pHYs
                0x000a7a61                png_IDAT
                0x000a7a8e                png_oFFs
 *fill*         0x000a7ac5        0x3 00
 .data          0x000a7ac8        0x8 /opt/RidgeRun/arm-eabi-uclibc/lib/gcc/arm-linux-uclibcgnueabi/4.1.1/../../../../arm-linux-uclibcgnueabi/lib/libc.a(__C_ctype_tolower.o)
                0x000a7ac8                __C_ctype_tolower
                0x000a7acc                __GI___ctype_tolower
                0x000a7ac8                __GI___C_ctype_tolower
                0x000a7acc                __ctype_tolower
 .data          0x000a7ad0        0x8 /opt/RidgeRun/arm-eabi-uclibc/lib/gcc/arm-linux-uclibcgnueabi/4.1.1/../../../../arm-linux-uclibcgnueabi/lib/libc.a(__C_ctype_toupper.o)
                0x000a7ad4                __GI___ctype_toupper
                0x000a7ad0                __GI___C_ctype_toupper
                0x000a7ad4                __ctype_toupper
                0x000a7ad0                __C_ctype_toupper
 .data          0x000a7ad8      0x160 /opt/RidgeRun/arm-eabi-uclibc/lib/gcc/arm-linux-uclibcgnueabi/4.1.1/../../../../arm-linux-uclibcgnueabi/lib/libc.a(_stdio.o)
                0x000a7adc                stdout
                0x000a7aec                _stdio_openlist
                0x000a7ae4                __stdin
                0x000a7ad8                stdin
                0x000a7b08                _stdio_user_locking
                0x000a7ae0                stderr
                0x000a7ae8                __stdout
                0x000a7af0                _stdio_openlist_lock
 .data          0x000a7c38        0x4 /opt/RidgeRun/arm-eabi-uclibc/lib/gcc/arm-linux-uclibcgnueabi/4.1.1/../../../../arm-linux-uclibcgnueabi/lib/libc.a(_ppfs_parsespec.o)
                0x000a7c38                _custom_printf_spec
 *fill*         0x000a7c3c        0x4 00
 .data          0x000a7c40      0x120 /opt/RidgeRun/arm-eabi-uclibc/lib/gcc/arm-linux-uclibcgnueabi/4.1.1/../../../../arm-linux-uclibcgnueabi/lib/libc.a(malloc.o)
                0x000a7c40                __malloc_heap
 .data          0x000a7d60       0x18 /opt/RidgeRun/arm-eabi-uclibc/lib/gcc/arm-linux-uclibcgnueabi/4.1.1/../../../../arm-linux-uclibcgnueabi/lib/libc.a(abort.o)
 .data          0x000a7d78       0x18 /opt/RidgeRun/arm-eabi-uclibc/lib/gcc/arm-linux-uclibcgnueabi/4.1.1/../../../../arm-linux-uclibcgnueabi/lib/libc.a(exit.o)
                0x000a7d78                mylock
 .data          0x000a7d90        0x8 /opt/RidgeRun/arm-eabi-uclibc/lib/gcc/arm-linux-uclibcgnueabi/4.1.1/../../../../arm-linux-uclibcgnueabi/lib/libc.a(__C_ctype_b.o)
                0x000a7d94                __GI___ctype_b
                0x000a7d94                __ctype_b
                0x000a7d90                __GI___C_ctype_b
                0x000a7d90                __C_ctype_b
 .data          0x000a7d98        0x4 /opt/RidgeRun/arm-eabi-uclibc/lib/gcc/arm-linux-uclibcgnueabi/4.1.1/../../../../arm-linux-uclibcgnueabi/lib/libc.a(dl-support.o)
                0x000a7d98                _dl_init_static_tls
 *(.gnu.linkonce.d.*personality*)

.data1
 *(.data1)
                0x000a7d9c                _edata = .
                0x000a7d9c                PROVIDE (edata, .)
                0x000a7d9c                __bss_start = .
                0x000a7d9c                __bss_start__ = .

.bss            0x000a7da0   0x11d098
 *(.dynbss)
 *(.bss .bss.* .gnu.linkonce.b.*)
 .bss           0x000a7da0       0x1c /opt/RidgeRun/arm-eabi-uclibc/lib/gcc/arm-linux-uclibcgnueabi/4.1.1/crtbeginT.o
 *fill*         0x000a7dbc        0x4 00
 .bss           0x000a7dc0       0x68 fce.o
                0x000a7ddc                use098code
                0x000a7dd0                FSkip
                0x000a7dce                XOffset
                0x000a7dc0                timestampbase
                0x000a7dcc                MMC5HackCHRMode
                0x000a7de4                FCEUI_Emulate
                0x000a7dcf                PAL
                0x000a7de0                ResetNES
                0x000a7dd4                GameLoaded
                0x000a7dd8                LoadGameLastError
                0x000a7dcd                vtoggle
                0x000a7dc8                kook
 .bss           0x000a7e28        0x4 video.o
                0x000a7e28                XBuf
 .bss           0x000a7e2c     0x1814 general.o
 .bss           0x000a9640        0x4 endian.o
 .bss           0x000a9644       0x50 svga.o
                0x000a9645                DIPS
                0x000a9644                Exit
                0x000a9646                CommandQueue
 .bss           0x000a9694      0x1b0 sound.o
                0x000a96d4                SIRQStat
                0x000a96b0                soundtsoffs
                0x000a9694                GameExpSound
                0x000a96ad                tricoop
                0x000a96b8                PCMAddressIndex
                0x000a96ae                sqnon
                0x000a96c0                PCMBuffer
                0x000a96bc                PCMSizeIndex
                0x000a96d5                fcnt
                0x000a96c8                sweepon
                0x000a96ac                trimode
                0x000a96cc                curfreq
                0x000a96d8                fhcnt
                0x000a96c4                vdis
                0x000a96b4                PCMBitIndex
 *fill*         0x000a9844        0x4 00
 .bss           0x000a9848       0xc0 nsf.o
 .bss           0x000a9908     0x2120 fds.o
 .bss           0x000aba28       0x94 ines.o
                0x000aba44                iNESIRQCount
                0x000aba40                iNESIRQLatch
                0x000aba48                iNESIRQa
                0x000aba4c                ROM_size
                0x000aba2c                iNESMirroring
                0x000aba50                VROM_size
                0x000aba54                iNESGameCRC32
                0x000aba28                VROM
                0x000aba2e                iNESCHRBankList
 .bss           0x000ababc      0x318 state.o
                0x000ababc                CurrentState
 .bss           0x000abdd4      0x970 unif.o
                0x000abdd4                UNIFchrrama
 .bss           0x000ac744       0x50 input.o
 .bss           0x000ac794       0x24 file.o
 .bss           0x000ac7b8     0x217c cart.o
                0x000ac7bc                disableBatteryLoading
                0x000ac7b8                geniestage
 .bss           0x000ae934      0xd14 cheat.o
                0x000ae934                cheats
                0x000ae938                cheatsl
 .bss           0x000af648       0x21 md5.o
 *fill*         0x000af669        0x7 00
 .bss           0x000af670       0x28 vsuni.o
                0x000af670                vsdip
                0x000af671                coinon
 .bss           0x000af698       0x18 palette.o
                0x000af698                pale
 .bss           0x000af6b0      0x10c mappers/16.o
 .bss           0x000af7bc        0x4 mappers/21.o
 .bss           0x000af7c0        0x4 mappers/23.o
 .bss           0x000af7c4       0x44 mappers/24and26.o
 .bss           0x000af808        0x4 mappers/25.o
 .bss           0x000af80c       0x24 mappers/27.o
 .bss           0x000af830        0x4 mappers/33.o
 .bss           0x000af834        0x4 mappers/59.o
 .bss           0x000af838        0x1 mappers/6.o
 *fill*         0x000af839        0x3 00
 .bss           0x000af83c       0x28 mappers/69.o
 .bss           0x000af864        0x1 mappers/76.o
 *fill*         0x000af865        0x3 00
 .bss           0x000af868       0x14 mappers/80.o
 .bss           0x000af87c       0x10 mappers/85.o
 .bss           0x000af88c        0x4 mappers/99.o
 .bss           0x000af890    0x62188 mappers/emu2413.o
 .bss           0x00111a18        0x2 mappers/simple.o
 *fill*         0x00111a1a        0x2 00
 .bss           0x00111a1c       0x10 boards/112.o
 .bss           0x00111a2c        0xf boards/117.o
 .bss           0x00111a3b     0x2009 boards/164.o
 .bss           0x00113a44        0xf boards/183.o
 *fill*         0x00113a53        0x1 00
 .bss           0x00113a54        0xc boards/185.o
 .bss           0x00113a60      0xb08 boards/186.o
 .bss           0x00114568        0xe boards/222.o
 .bss           0x00114576        0x2 boards/235.o
 .bss           0x00114578        0x3 boards/57.o
 *fill*         0x0011457b        0x1 00
 .bss           0x0011457c        0x4 boards/8157.o
 .bss           0x00114580        0x1 boards/8237.o
 .bss           0x00114581        0xb boards/88.o
 .bss           0x0011458c       0x38 boards/90.o
 .bss           0x001145c4       0x13 boards/95.o
 *fill*         0x001145d7        0x1 00
 .bss           0x001145d8       0x14 boards/bmc13in1jy110.o
 .bss           0x001145ec        0x2 boards/bmc42in1r.o
 .bss           0x001145ee        0x4 boards/bmc64in1nr.o
 .bss           0x001145f2        0x6 boards/bmc70in1.o
 .bss           0x001145f8        0x2 boards/bmcgk192.o
 .bss           0x001145fa        0xa boards/bonza.o
 .bss           0x00114604        0x2 boards/cc21.o
 *fill*         0x00114606        0x2 00
 .bss           0x00114608        0xc boards/datalatch.o
 .bss           0x00114614        0x9 boards/deirom.o
 .bss           0x0011461d        0x1 boards/dream.o
 .bss           0x0011461e        0x1 boards/fk23c.o
 .bss           0x0011461f        0x1 boards/karaoke.o
 .bss           0x00114620     0x2014 boards/konami-qtai.o
 .bss           0x00116634      0x800 boards/malee.o
 *fill*         0x00116e34        0x4 00
 .bss           0x00116e38       0x30 boards/mmc1.o
 .bss           0x00116e68       0x2c boards/mmc3.o
 .bss           0x00116e94       0x70 boards/mmc5.o
 .bss           0x00116f04     0x2148 boards/n106.o
 .bss           0x0011904c        0x1 boards/novel.o
 *fill*         0x0011904d        0x3 00
 .bss           0x00119050       0x14 boards/sachen.o
 .bss           0x00119064        0x1 boards/sheroes.o
 .bss           0x00119065       0x19 boards/sl1632.o
 .bss           0x0011907e        0x5 boards/subor.o
 .bss           0x00119083        0x2 boards/supervision.o
 *fill*         0x00119085        0x1 00
 .bss           0x00119086        0x4 boards/t-262.o
 *fill*         0x0011908a        0x2 00
 .bss           0x0011908c       0x44 boards/tengen.o
 .bss           0x001190d0        0x8 boards/__dummy_mapper.o
 .bss           0x001190d8       0x40 input/zapper.o
 .bss           0x00119118       0x14 input/powerpad.o
 .bss           0x0011912c       0x24 input/arkanoid.o
 .bss           0x00119150       0x20 input/shadow.o
 .bss           0x00119170       0x4b input/fkb.o
 .bss           0x001191bb        0x2 input/hypershot.o
 *fill*         0x001191bd        0x3 00
 .bss           0x001191c0        0x8 input/mahjong.o
 .bss           0x001191c8       0x14 input/oekakids.o
 .bss           0x001191dc        0xc input/ftrainer.o
 .bss           0x001191e8        0x3 input/quiz.o
 *fill*         0x001191eb        0x1 00
 .bss           0x001191ec        0xc input/toprider.o
 .bss           0x001191f8       0x28 input/bworld.o
 .bss           0x00119220       0x63 input/suborkb.o
 *fill*         0x00119283        0x1 00
 .bss           0x00119284       0x40 drivers/LF1000/minimal.o
                0x0011928c                ext_state
                0x00119284                memdev
                0x00119288                ext_menu
 .bss           0x001192c4       0x24 drivers/LF1000/cpuctrl.o
 .bss           0x001192e8       0x10 drivers/LF1000/gp2x.o
                0x001192ec                mmuhack_status
                0x001192e8                GP2X_PORT_REV
 .bss           0x001192f8      0x93c drivers/LF1000/main.o
                0x00119308                cpalette
                0x001192fc                ntsccol
                0x00119304                eoptions
                0x001192f8                fceugi
                0x00119300                inited
 .bss           0x00119c34        0xc drivers/LF1000/throttle.o
 .bss           0x00119c40        0x8 drivers/LF1000/unix-netplay.o
                0x00119c44                FDnetplay
                0x00119c40                netplayhost
 .bss           0x00119c48       0x30 drivers/LF1000/gp2x-video.o
 .bss           0x00119c78        0x8 drivers/LF1000/usbjoy.o
                0x00119c78                num_of_joys
 .bss           0x00119c80     0x1108 drivers/LF1000/menu.o
                0x00119c80                menuErrorMsg
 .bss           0x0011ad88       0x5c drivers/common/cheat.o
 .bss           0x0011ade4       0x14 drivers/common/vidblit.o
 .bss           0x0011adf8        0xc ppu.o
                0x0011adf8                spork
 .bss           0x0011ae04       0xa8 movie.o
                0x0011ae18                suppressMovieStop
                0x0011ae24                movieConvertOK
                0x0011ae08                framecount
                0x0011ae28                movieSyncHackOn
                0x0011ae04                current
                0x0011ae2c                justAutoConverted
                0x0011ae1c                movieConvertOffset1
                0x0011ae0c                frame_display
                0x0011ae20                movieConvertOffset2
                0x0011ae14                resetDMCacc
                0x0011ae10                input_display
 .bss           0x0011aeac      0xa58 ppu098.o
 .bss           0x0011b904     0x2004 /opt/RidgeRun/arm-eabi-uclibc/lib/gcc/arm-linux-uclibcgnueabi/4.1.1/../../../../arm-linux-uclibcgnueabi/lib/libc.a(_stdio.o)
                0x0011b904                _stdio_openlist_delflag
 .bss           0x0011d908        0xa /opt/RidgeRun/arm-eabi-uclibc/lib/gcc/arm-linux-uclibcgnueabi/4.1.1/../../../../arm-linux-uclibcgnueabi/lib/libc.a(_ppfs_parsespec.o)
 .bss           0x0011d912       0x32 /opt/RidgeRun/arm-eabi-uclibc/lib/gcc/arm-linux-uclibcgnueabi/4.1.1/../../../../arm-linux-uclibcgnueabi/lib/libc.a(strerror.o)
 .bss           0x0011d944        0x4 /opt/RidgeRun/arm-eabi-uclibc/lib/gcc/arm-linux-uclibcgnueabi/4.1.1/../../../../arm-linux-uclibcgnueabi/lib/libc.a(abort.o)
 .bss           0x0011d948      0x120 /opt/RidgeRun/arm-eabi-uclibc/lib/gcc/arm-linux-uclibcgnueabi/4.1.1/../../../../arm-linux-uclibcgnueabi/lib/libc.a(system.o)
 .bss           0x0011da68        0x4 /opt/RidgeRun/arm-eabi-uclibc/lib/gcc/arm-linux-uclibcgnueabi/4.1.1/../../../../arm-linux-uclibcgnueabi/lib/libc.a(exit.o)
                0x0011da68                __exit_cleanup
 .bss           0x0011da6c       0x1c /opt/RidgeRun/arm-eabi-uclibc/lib/gcc/arm-linux-uclibcgnueabi/4.1.1/../../../../arm-linux-uclibcgnueabi/lib/libc.a(__uClibc_main.o)
                0x0011da6c                __libc_stack_end
                0x0011da74                __environ
                0x0011da7c                __app_fini
                0x0011da74                environ
                0x0011da70                __progname
                0x0011da70                __uclibc_progname
                0x0011da80                __rtld_fini
                0x0011da78                __pagesize
 .bss           0x0011da88      0x53c /opt/RidgeRun/arm-eabi-uclibc/lib/gcc/arm-linux-uclibcgnueabi/4.1.1/../../../../arm-linux-uclibcgnueabi/lib/libc.a(libc-tls.o)
 .bss           0x0011dfc4        0x4 /opt/RidgeRun/arm-eabi-uclibc/lib/gcc/arm-linux-uclibcgnueabi/4.1.1/../../../../arm-linux-uclibcgnueabi/lib/libc.a(brk.o)
                0x0011dfc4                __curbrk
 .bss           0x0011dfc8        0x8 /opt/RidgeRun/arm-eabi-uclibc/lib/gcc/arm-linux-uclibcgnueabi/4.1.1/../../../../arm-linux-uclibcgnueabi/lib/libc.a(mbrtowc.o)
 .bss           0x0011dfd0        0x8 /opt/RidgeRun/arm-eabi-uclibc/lib/gcc/arm-linux-uclibcgnueabi/4.1.1/../../../../arm-linux-uclibcgnueabi/lib/libc.a(mbsnrtowcs.o)
 *(COMMON)
 COMMON         0x0011dfd8    0xa10f0 fce.o
                0x0011dfd8                MMC5BGVPage
                0x0011dff8                PPUGenLatch
                0x0011dffc                MMC5HackExNTARAMPtr
                0x0011e000                PPUNTARAM
                0x0011e001                PPUSPL
                0x0011e002                MMC5HackSPMode
                0x0011e003                lastLoadedGameName
                0x0011e804                vnapage
                0x0011e814                scanline
                0x0011e818                TempAddr
                0x0011e81c                ARead
                0x0015e81c                RefreshAddr
                0x0015e820                PPUCHRRAM
                0x0015e824                GameMemBlock
                0x0017e824                GameHBIRQHook2
                0x0017e828                MMC5HackVROMPTR
                0x0017e82c                GameInterface
                0x0017e830                PPU_hook
                0x0017e834                MMC5Hack
                0x0017e838                GameStateRestore
                0x0017e83c                PPU
                0x0017e840                MMC5HackSPPage
                0x0017e844                NTARAM
                0x0017f044                MMC5HackVROMMask
                0x0017f048                RefreshAddrT
                0x0017f04a                TempAddrT
                0x0017f04c                FCEUGameInfo
                0x0017f080                GameHBIRQHook
                0x0017f084                MMC5HackSPScroll
                0x0017f085                VRAMBuffer
                0x0017f088                BWrite
                0x001bf088                PALRAM
                0x001bf0a8                MMC5SPRVPage
 COMMON         0x001bf0c8      0x800 general.o
                0x001bf0c8                FileBase
 COMMON         0x001bf8c8       0x30 svga.o
                0x001bf8c8                FSettings
 COMMON         0x001bf8f8     0x3c4c sound.o
                0x001bf8f8                decvolume
                0x001bf8fc                nreg
                0x001bf900                soundtsinc
                0x001bf904                soundtsi
                0x001bf908                realvolume
                0x001bf90c                lowp
                0x001bf910                DecCountTo1
                0x001bf913                SweepCount
                0x001bf916                WaveFinalMono
                0x001c0d18                PCMIRQCount
                0x001c0d1c                PSG_base
                0x001c0d20                PSG
                0x001c0d38                Wave
                0x001c3538                fhinc
                0x001c353c                nesincsize
                0x001c3540                highp
 COMMON         0x001c3544        0xc ines.o
                0x001c3544                MapClose
                0x001c3548                MapperReset
                0x001c354c                MapStateRestore
 COMMON         0x001c3550       0x14 state.o
                0x001c3550                StateBuffer
                0x001c3554                SaveStateStatus
                0x001c3560                intostate
 COMMON         0x001c3564        0x4 input.o
                0x001c3564                InputScanlineHook
 COMMON         0x001c3568      0x758 cart.o
                0x001c3568                geniech
                0x001c356c                PRGmask2
                0x001c35ec                PRGmask32
                0x001c366c                CHRmask4
                0x001c36ec                PRGptr
                0x001c376c                PRGmask8
                0x001c37ec                CHRmask1
                0x001c386c                CHRptr
                0x001c38ec                VPage
                0x001c390c                PRGmask16
                0x001c398c                CHRmask8
                0x001c3a0c                genieval
                0x001c3a10                Page
                0x001c3a90                modcon
                0x001c3a94                CHRmask2
                0x001c3b14                VPageG
                0x001c3b34                PRGsize
                0x001c3bb4                PRGmask4
                0x001c3c34                CHRsize
                0x001c3cb4                genieaddr
 COMMON         0x001c3cc0        0x4 vsuni.o
                0x001c3cc0                curvs
 COMMON         0x001c3cc4      0x244 palette.o
                0x001c3cc4                palettec
                0x001c3d84                paletten
                0x001c3e44                palo
                0x001c3e48                palettei
 COMMON         0x001c3f08       0x2a boards/mmc3.o
                0x001c3f08                IRQCount
                0x001c3f0c                pwrap
                0x001c3f10                mwrap
                0x001c3f14                CHRRAMSize
                0x001c3f18                CHRRAM
                0x001c3f1c                cwrap
                0x001c3f20                IRQReload
                0x001c3f21                MMC3_cmd
                0x001c3f24                WRAM
                0x001c3f28                IRQa
                0x001c3f29                EXPREGS
                0x001c3f31                IRQLatch
 *fill*         0x001c3f32        0x2 00
 COMMON         0x001c3f34        0xc drivers/LF1000/minimal.o
                0x001c3f34                gp2x_screen
                0x001c3f38                gp2x_memregs
                0x001c3f3c                gp2x_memregl
 COMMON         0x001c3f40      0x2b8 drivers/LF1000/gp2x.o
                0x001c3f40                Settings
                0x001c41f4                g_argv
 COMMON         0x001c41f8        0x8 drivers/LF1000/main.o
                0x001c41f8                erendline
                0x001c41fc                srendline
 COMMON         0x001c4200      0x604 drivers/LF1000/gp2x-video.o
                0x001c4200                gp2x_palette16
                0x001c4400                paletterefresh
                0x001c4404                gp2x_palette
 COMMON         0x001c4804       0x10 drivers/LF1000/usbjoy.o
                0x001c4804                joys
 COMMON         0x001c4814      0x310 ppu.o
                0x001c4814                sprlinebuf
                0x001c491c                SPRAM
                0x001c4a1c                sphitx
                0x001c4a20                sphitdata
                0x001c4a24                SPRBUF
 COMMON         0x001c4b24      0x200 movie.o
                0x001c4b24                curMovieFilename
 COMMON         0x001c4d24       0x50 /opt/RidgeRun/arm-eabi-uclibc/lib/gcc/arm-linux-uclibcgnueabi/4.1.1/../../../../arm-linux-uclibcgnueabi/lib/libc.a(_ppfs_parsespec.o)
                0x001c4d24                _custom_printf_arginfo
                0x001c4d4c                _custom_printf_handler
 COMMON         0x001c4d74       0x80 /opt/RidgeRun/arm-eabi-uclibc/lib/gcc/arm-linux-uclibcgnueabi/4.1.1/../../../../arm-linux-uclibcgnueabi/lib/libc.a(signal.o)
                0x001c4d74                _sigintr
 COMMON         0x001c4df4       0x18 /opt/RidgeRun/arm-eabi-uclibc/lib/gcc/arm-linux-uclibcgnueabi/4.1.1/../../../../arm-linux-uclibcgnueabi/lib/libc.a(malloc.o)
                0x001c4df4                __malloc_sbrk_lock
 COMMON         0x001c4e0c       0x20 /opt/RidgeRun/arm-eabi-uclibc/lib/gcc/arm-linux-uclibcgnueabi/4.1.1/../../../../arm-linux-uclibcgnueabi/lib/libc.a(libc-tls.o)
                0x001c4e0c                _dl_tls_static_used
                0x001c4e10                _dl_tls_static_align
                0x001c4e14                _dl_tls_max_dtv_idx
                0x001c4e18                _dl_tls_static_size
                0x001c4e1c                _dl_tls_dtv_slotinfo_list
                0x001c4e20                _dl_tls_dtv_gaps
                0x001c4e24                _dl_tls_generation
                0x001c4e28                _dl_tls_static_nelem
 COMMON         0x001c4e2c        0x4 /opt/RidgeRun/arm-eabi-uclibc/lib/gcc/arm-linux-uclibcgnueabi/4.1.1/../../../../arm-linux-uclibcgnueabi/lib/libc.a(libc_multiple_threads.o)
                0x001c4e2c                __libc_multiple_threads
 COMMON         0x001c4e30        0x8 /opt/RidgeRun/arm-eabi-uclibc/lib/gcc/arm-linux-uclibcgnueabi/4.1.1/../../../../arm-linux-uclibcgnueabi/lib/libc.a(dl-support.o)
                0x001c4e30                _dl_phdr
                0x001c4e34                _dl_phnum
                0x001c4e38                . = ALIGN ((. != 0x0)?0x4:0x1)
                0x001c4e38                _bss_end__ = .
                0x001c4e38                __bss_end__ = .
                0x001c4e38                . = ALIGN (0x4)
                0x001c4e38                . = ALIGN (0x4)
                0x001c4e38                __end__ = .
                0x001c4e38                _end = .
                0x001c4e38                PROVIDE (end, .)
                0x001c4e38                . = DATA_SEGMENT_END (.)

.stab
 *(.stab)

.stabstr
 *(.stabstr)

.stab.excl
 *(.stab.excl)

.stab.exclstr
 *(.stab.exclstr)

.stab.index
 *(.stab.index)

.stab.indexstr
 *(.stab.indexstr)

.comment        0x00000000     0x1c24
 *(.comment)
 .comment       0x00000000       0x2f /opt/RidgeRun/arm-eabi-uclibc/lib/gcc/arm-linux-uclibcgnueabi/4.1.1/../../../../arm-linux-uclibcgnueabi/lib/crti.o
 .comment       0x0000002f       0x12 /opt/RidgeRun/arm-eabi-uclibc/lib/gcc/arm-linux-uclibcgnueabi/4.1.1/crtbeginT.o
 .comment       0x00000041       0x12 fce.o
 .comment       0x00000053       0x12 video.o
 .comment       0x00000065       0x12 general.o
 .comment       0x00000077       0x12 endian.o
 .comment       0x00000089       0x12 svga.o
 .comment       0x0000009b       0x12 sound.o
 .comment       0x000000ad       0x12 nsf.o
 .comment       0x000000bf       0x12 fds.o
 .comment       0x000000d1       0x12 netplay.o
 .comment       0x000000e3       0x12 ines.o
 .comment       0x000000f5       0x12 state.o
 .comment       0x00000107       0x12 unif.o
 .comment       0x00000119       0x12 input.o
 .comment       0x0000012b       0x12 file.o
 .comment       0x0000013d       0x12 cart.o
 .comment       0x0000014f       0x12 crc32.o
 .comment       0x00000161       0x12 memory.o
 .comment       0x00000173       0x12 cheat.o
 .comment       0x00000185       0x12 debug.o
 .comment       0x00000197       0x12 md5.o
 .comment       0x000001a9       0x12 vsuni.o
 .comment       0x000001bb       0x12 palette.o
 .comment       0x000001cd       0x12 mappers/113.o
 .comment       0x000001df       0x12 mappers/15.o
 .comment       0x000001f1       0x12 mappers/151.o
 .comment       0x00000203       0x12 mappers/16.o
 .comment       0x00000215       0x12 mappers/17.o
 .comment       0x00000227       0x12 mappers/18.o
 .comment       0x00000239       0x12 mappers/180.o
 .comment       0x0000024b       0x12 mappers/183.o
 .comment       0x0000025d       0x12 mappers/184.o
 .comment       0x0000026f       0x12 mappers/193.o
 .comment       0x00000281       0x12 mappers/200.o
 .comment       0x00000293       0x12 mappers/201.o
 .comment       0x000002a5       0x12 mappers/202.o
 .comment       0x000002b7       0x12 mappers/203.o
 .comment       0x000002c9       0x12 mappers/204.o
 .comment       0x000002db       0x12 mappers/21.o
 .comment       0x000002ed       0x12 mappers/212.o
 .comment       0x000002ff       0x12 mappers/213.o
 .comment       0x00000311       0x12 mappers/214.o
 .comment       0x00000323       0x12 mappers/215.o
 .comment       0x00000335       0x12 mappers/217.o
 .comment       0x00000347       0x12 mappers/22.o
 .comment       0x00000359       0x12 mappers/225.o
 .comment       0x0000036b       0x12 mappers/226.o
 .comment       0x0000037d       0x12 mappers/227.o
 .comment       0x0000038f       0x12 mappers/228.o
 .comment       0x000003a1       0x12 mappers/229.o
 .comment       0x000003b3       0x12 mappers/23.o
 .comment       0x000003c5       0x12 mappers/230.o
 .comment       0x000003d7       0x12 mappers/231.o
 .comment       0x000003e9       0x12 mappers/232.o
 .comment       0x000003fb       0x12 mappers/234.o
 .comment       0x0000040d       0x12 mappers/240.o
 .comment       0x0000041f       0x12 mappers/241.o
 .comment       0x00000431       0x12 mappers/242.o
 .comment       0x00000443       0x12 mappers/244.o
 .comment       0x00000455       0x12 mappers/246.o
 .comment       0x00000467       0x12 mappers/24and26.o
 .comment       0x00000479       0x12 mappers/25.o
 .comment       0x0000048b       0x12 mappers/255.o
 .comment       0x0000049d       0x12 mappers/27.o
 .comment       0x000004af       0x12 mappers/32.o
 .comment       0x000004c1       0x12 mappers/33.o
 .comment       0x000004d3       0x12 mappers/40.o
 .comment       0x000004e5       0x12 mappers/41.o
 .comment       0x000004f7       0x12 mappers/42.o
 .comment       0x00000509       0x12 mappers/43.o
 .comment       0x0000051b       0x12 mappers/46.o
 .comment       0x0000052d       0x12 mappers/50.o
 .comment       0x0000053f       0x12 mappers/51.o
 .comment       0x00000551       0x12 mappers/59.o
 .comment       0x00000563       0x12 mappers/6.o
 .comment       0x00000575       0x12 mappers/60.o
 .comment       0x00000587       0x12 mappers/61.o
 .comment       0x00000599       0x12 mappers/62.o
 .comment       0x000005ab       0x12 mappers/65.o
 .comment       0x000005bd       0x12 mappers/67.o
 .comment       0x000005cf       0x12 mappers/68.o
 .comment       0x000005e1       0x12 mappers/69.o
 .comment       0x000005f3       0x12 mappers/71.o
 .comment       0x00000605       0x12 mappers/72.o
 .comment       0x00000617       0x12 mappers/73.o
 .comment       0x00000629       0x12 mappers/75.o
 .comment       0x0000063b       0x12 mappers/76.o
 .comment       0x0000064d       0x12 mappers/77.o
 .comment       0x0000065f       0x12 mappers/79.o
 .comment       0x00000671       0x12 mappers/8.o
 .comment       0x00000683       0x12 mappers/80.o
 .comment       0x00000695       0x12 mappers/82.o
 .comment       0x000006a7       0x12 mappers/83.o
 .comment       0x000006b9       0x12 mappers/85.o
 .comment       0x000006cb       0x12 mappers/86.o
 .comment       0x000006dd       0x12 mappers/89.o
 .comment       0x000006ef       0x12 mappers/91.o
 .comment       0x00000701       0x12 mappers/92.o
 .comment       0x00000713       0x12 mappers/97.o
 .comment       0x00000725       0x12 mappers/99.o
 .comment       0x00000737       0x12 mappers/emu2413.o
 .comment       0x00000749       0x12 mappers/mmc2and4.o
 .comment       0x0000075b       0x12 mappers/simple.o
 .comment       0x0000076d       0x12 boards/112.o
 .comment       0x0000077f       0x12 boards/117.o
 .comment       0x00000791       0x12 boards/164.o
 .comment       0x000007a3       0x12 boards/183.o
 .comment       0x000007b5       0x12 boards/185.o
 .comment       0x000007c7       0x12 boards/186.o
 .comment       0x000007d9       0x12 boards/187.o
 .comment       0x000007eb       0x12 boards/189.o
 .comment       0x000007fd       0x12 boards/208.o
 .comment       0x0000080f       0x12 boards/222.o
 .comment       0x00000821       0x12 boards/235.o
 .comment       0x00000833       0x12 boards/57.o
 .comment       0x00000845       0x12 boards/8157.o
 .comment       0x00000857       0x12 boards/8237.o
 .comment       0x00000869       0x12 boards/88.o
 .comment       0x0000087b       0x12 boards/90.o
 .comment       0x0000088d       0x12 boards/95.o
 .comment       0x0000089f       0x12 boards/bmc13in1jy110.o
 .comment       0x000008b1       0x12 boards/bmc42in1r.o
 .comment       0x000008c3       0x12 boards/bmc64in1nr.o
 .comment       0x000008d5       0x12 boards/bmc70in1.o
 .comment       0x000008e7       0x12 boards/bmcgk192.o
 .comment       0x000008f9       0x12 boards/bonza.o
 .comment       0x0000090b       0x12 boards/cc21.o
 .comment       0x0000091d       0x12 boards/datalatch.o
 .comment       0x0000092f       0x12 boards/deirom.o
 .comment       0x00000941       0x12 boards/dream.o
 .comment       0x00000953       0x12 boards/fk23c.o
 .comment       0x00000965       0x12 boards/h2288.o
 .comment       0x00000977       0x12 boards/karaoke.o
 .comment       0x00000989       0x12 boards/kof97.o
 .comment       0x0000099b       0x12 boards/konami-qtai.o
 .comment       0x000009ad       0x12 boards/malee.o
 .comment       0x000009bf       0x12 boards/mmc1.o
 .comment       0x000009d1       0x12 boards/mmc3.o
 .comment       0x000009e3       0x12 boards/mmc5.o
 .comment       0x000009f5       0x12 boards/n106.o
 .comment       0x00000a07       0x12 boards/novel.o
 .comment       0x00000a19       0x12 boards/sachen.o
 .comment       0x00000a2b       0x12 boards/sheroes.o
 .comment       0x00000a3d       0x12 boards/sl1632.o
 .comment       0x00000a4f       0x12 boards/sonic5.o
 .comment       0x00000a61       0x12 boards/subor.o
 .comment       0x00000a73       0x12 boards/super24.o
 .comment       0x00000a85       0x12 boards/supervision.o
 .comment       0x00000a97       0x12 boards/t-262.o
 .comment       0x00000aa9       0x12 boards/tengen.o
 .comment       0x00000abb       0x12 boards/__dummy_mapper.o
 .comment       0x00000acd       0x12 input/cursor.o
 .comment       0x00000adf       0x12 input/zapper.o
 .comment       0x00000af1       0x12 input/powerpad.o
 .comment       0x00000b03       0x12 input/arkanoid.o
 .comment       0x00000b15       0x12 input/shadow.o
 .comment       0x00000b27       0x12 input/fkb.o
 .comment       0x00000b39       0x12 input/hypershot.o
 .comment       0x00000b4b       0x12 input/mahjong.o
 .comment       0x00000b5d       0x12 input/oekakids.o
 .comment       0x00000b6f       0x12 input/ftrainer.o
 .comment       0x00000b81       0x12 input/quiz.o
 .comment       0x00000b93       0x12 input/toprider.o
 .comment       0x00000ba5       0x12 input/bworld.o
 .comment       0x00000bb7       0x12 input/suborkb.o
 .comment       0x00000bc9       0x12 drivers/LF1000/minimal.o
 .comment       0x00000bdb       0x12 drivers/LF1000/cpuctrl.o
 .comment       0x00000bed       0x12 drivers/LF1000/squidgehack.o
 .comment       0x00000bff       0x12 drivers/LF1000/gp2x.o
 .comment       0x00000c11       0x12 drivers/LF1000/main.o
 .comment       0x00000c23       0x12 drivers/LF1000/throttle.o
 .comment       0x00000c35       0x12 drivers/LF1000/unix-netplay.o
 .comment       0x00000c47       0x12 drivers/LF1000/gp2x-sound.o
 .comment       0x00000c59       0x12 drivers/LF1000/gp2x-video.o
 .comment       0x00000c6b       0x12 drivers/LF1000/usbjoy.o
 .comment       0x00000c7d       0x12 drivers/LF1000/menu.o
 .comment       0x00000c8f       0x12 drivers/LF1000/fonts.o
 .comment       0x00000ca1       0x12 drivers/LF1000/readpng.o
 .comment       0x00000cb3       0x12 drivers/common/cheat.o
 .comment       0x00000cc5       0x12 drivers/common/config.o
 .comment       0x00000cd7       0x12 drivers/common/args.o
 .comment       0x00000ce9       0x12 drivers/common/vidblit.o
 .comment       0x00000cfb       0x12 zlib/unzip.o
 .comment       0x00000d0d       0x12 ppu.o
 .comment       0x00000d1f       0x12 movie.o
 .comment       0x00000d31       0x12 fceu098.o
 .comment       0x00000d43       0x12 ppu098.o
 .comment       0x00000d55       0x12 /opt/RidgeRun/arm-eabi-uclibc/lib/gcc/arm-linux-uclibcgnueabi/4.1.1/../../../../arm-linux-uclibcgnueabi/lib/libm.a(s_atan.o)
 .comment       0x00000d67       0x12 /opt/RidgeRun/arm-eabi-uclibc/lib/gcc/arm-linux-uclibcgnueabi/4.1.1/../../../../arm-linux-uclibcgnueabi/lib/libm.a(s_cos.o)
 .comment       0x00000d79       0x12 /opt/RidgeRun/arm-eabi-uclibc/lib/gcc/arm-linux-uclibcgnueabi/4.1.1/../../../../arm-linux-uclibcgnueabi/lib/libm.a(s_fabs.o)
 .comment       0x00000d8b       0x12 /opt/RidgeRun/arm-eabi-uclibc/lib/gcc/arm-linux-uclibcgnueabi/4.1.1/../../../../arm-linux-uclibcgnueabi/lib/libm.a(s_sin.o)
 .comment       0x00000d9d       0x12 /opt/RidgeRun/arm-eabi-uclibc/lib/gcc/arm-linux-uclibcgnueabi/4.1.1/../../../../arm-linux-uclibcgnueabi/lib/libm.a(w_log.o)
 .comment       0x00000daf       0x12 /opt/RidgeRun/arm-eabi-uclibc/lib/gcc/arm-linux-uclibcgnueabi/4.1.1/../../../../arm-linux-uclibcgnueabi/lib/libm.a(w_log10.o)
 .comment       0x00000dc1       0x12 /opt/RidgeRun/arm-eabi-uclibc/lib/gcc/arm-linux-uclibcgnueabi/4.1.1/../../../../arm-linux-uclibcgnueabi/lib/libm.a(w_pow.o)
 .comment       0x00000dd3       0x12 /opt/RidgeRun/arm-eabi-uclibc/lib/gcc/arm-linux-uclibcgnueabi/4.1.1/../../../../arm-linux-uclibcgnueabi/lib/libm.a(w_sqrt.o)
 .comment       0x00000de5       0x12 /opt/RidgeRun/arm-eabi-uclibc/lib/gcc/arm-linux-uclibcgnueabi/4.1.1/../../../../arm-linux-uclibcgnueabi/lib/libm.a(e_log.o)
 .comment       0x00000df7       0x12 /opt/RidgeRun/arm-eabi-uclibc/lib/gcc/arm-linux-uclibcgnueabi/4.1.1/../../../../arm-linux-uclibcgnueabi/lib/libm.a(e_log10.o)
 .comment       0x00000e09       0x12 /opt/RidgeRun/arm-eabi-uclibc/lib/gcc/arm-linux-uclibcgnueabi/4.1.1/../../../../arm-linux-uclibcgnueabi/lib/libm.a(e_pow.o)
 .comment       0x00000e1b       0x12 /opt/RidgeRun/arm-eabi-uclibc/lib/gcc/arm-linux-uclibcgnueabi/4.1.1/../../../../arm-linux-uclibcgnueabi/lib/libm.a(e_rem_pio2.o)
 .comment       0x00000e2d       0x12 /opt/RidgeRun/arm-eabi-uclibc/lib/gcc/arm-linux-uclibcgnueabi/4.1.1/../../../../arm-linux-uclibcgnueabi/lib/libm.a(e_sqrt.o)
 .comment       0x00000e3f       0x12 /opt/RidgeRun/arm-eabi-uclibc/lib/gcc/arm-linux-uclibcgnueabi/4.1.1/../../../../arm-linux-uclibcgnueabi/lib/libm.a(k_cos.o)
 .comment       0x00000e51       0x12 /opt/RidgeRun/arm-eabi-uclibc/lib/gcc/arm-linux-uclibcgnueabi/4.1.1/../../../../arm-linux-uclibcgnueabi/lib/libm.a(k_rem_pio2.o)
 .comment       0x00000e63       0x12 /opt/RidgeRun/arm-eabi-uclibc/lib/gcc/arm-linux-uclibcgnueabi/4.1.1/../../../../arm-linux-uclibcgnueabi/lib/libm.a(k_sin.o)
 .comment       0x00000e75       0x12 /opt/RidgeRun/arm-eabi-uclibc/lib/gcc/arm-linux-uclibcgnueabi/4.1.1/../../../../arm-linux-uclibcgnueabi/lib/libm.a(s_floor.o)
 .comment       0x00000e87       0x12 /opt/RidgeRun/arm-eabi-uclibc/lib/gcc/arm-linux-uclibcgnueabi/4.1.1/../../../../arm-linux-uclibcgnueabi/lib/libm.a(s_scalbn.o)
 .comment       0x00000e99       0x12 /opt/RidgeRun/arm-eabi-uclibc/lib/gcc/arm-linux-uclibcgnueabi/4.1.1/../../../../arm-linux-uclibcgnueabi/lib/libm.a(s_copysign.o)
 .comment       0x00000eab       0x12 /home/joe/work/opendidj/rootfs//usr/lib/libz.a(compress.o)
 .comment       0x00000ebd       0x12 /home/joe/work/opendidj/rootfs//usr/lib/libz.a(crc32.o)
 .comment       0x00000ecf       0x12 /home/joe/work/opendidj/rootfs//usr/lib/libz.a(deflate.o)
 .comment       0x00000ee1       0x12 /home/joe/work/opendidj/rootfs//usr/lib/libz.a(trees.o)
 .comment       0x00000ef3       0x12 /home/joe/work/opendidj/rootfs//usr/lib/libz.a(zutil.o)
 .comment       0x00000f05       0x12 /home/joe/work/opendidj/rootfs//usr/lib/libz.a(inflate.o)
 .comment       0x00000f17       0x12 /home/joe/work/opendidj/rootfs//usr/lib/libz.a(inftrees.o)
 .comment       0x00000f29       0x12 /home/joe/work/opendidj/rootfs//usr/lib/libz.a(inffast.o)
 .comment       0x00000f3b       0x12 /home/joe/work/opendidj/rootfs//usr/lib/libz.a(adler32.o)
 .comment       0x00000f4d       0x12 /home/joe/work/opendidj/rootfs//usr/lib/libpng.a(libpng12_la-png.o)
 .comment       0x00000f5f       0x12 /home/joe/work/opendidj/rootfs//usr/lib/libpng.a(libpng12_la-pngget.o)
 .comment       0x00000f71       0x12 /home/joe/work/opendidj/rootfs//usr/lib/libpng.a(libpng12_la-pngread.o)
 .comment       0x00000f83       0x12 /home/joe/work/opendidj/rootfs//usr/lib/libpng.a(libpng12_la-pngrio.o)
 .comment       0x00000f95       0x12 /home/joe/work/opendidj/rootfs//usr/lib/libpng.a(libpng12_la-pngrtran.o)
 .comment       0x00000fa7       0x12 /home/joe/work/opendidj/rootfs//usr/lib/libpng.a(libpng12_la-pngmem.o)
 .comment       0x00000fb9       0x12 /home/joe/work/opendidj/rootfs//usr/lib/libpng.a(libpng12_la-pngerror.o)
 .comment       0x00000fcb       0x12 /home/joe/work/opendidj/rootfs//usr/lib/libpng.a(libpng12_la-pngrutil.o)
 .comment       0x00000fdd       0x12 /home/joe/work/opendidj/rootfs//usr/lib/libpng.a(libpng12_la-pngtrans.o)
 .comment       0x00000fef       0x12 /home/joe/work/opendidj/rootfs//usr/lib/libpng.a(libpng12_la-pngset.o)
 .comment       0x00001001       0x12 /opt/RidgeRun/arm-eabi-uclibc/lib/gcc/arm-linux-uclibcgnueabi/4.1.1/libgcc.a(bpabi.o)
 .comment       0x00001013       0x12 /opt/RidgeRun/arm-eabi-uclibc/lib/gcc/arm-linux-uclibcgnueabi/4.1.1/libgcc.a(_divdi3.o)
 .comment       0x00001025       0x12 /opt/RidgeRun/arm-eabi-uclibc/lib/gcc/arm-linux-uclibcgnueabi/4.1.1/libgcc.a(_udivdi3.o)
 .comment       0x00001037       0x12 /opt/RidgeRun/arm-eabi-uclibc/lib/gcc/arm-linux-uclibcgnueabi/4.1.1/libgcc.a(_clz.o)
 .comment       0x00001049       0x12 /opt/RidgeRun/arm-eabi-uclibc/lib/gcc/arm-linux-uclibcgnueabi/4.1.1/libgcc_eh.a(unwind-arm.o)
 .comment       0x0000105b       0x12 /opt/RidgeRun/arm-eabi-uclibc/lib/gcc/arm-linux-uclibcgnueabi/4.1.1/libgcc_eh.a(pr-support.o)
 .comment       0x0000106d       0x12 /opt/RidgeRun/arm-eabi-uclibc/lib/gcc/arm-linux-uclibcgnueabi/4.1.1/../../../../arm-linux-uclibcgnueabi/lib/libc.a(raise.o)
 .comment       0x0000107f       0x12 /opt/RidgeRun/arm-eabi-uclibc/lib/gcc/arm-linux-uclibcgnueabi/4.1.1/../../../../arm-linux-uclibcgnueabi/lib/libc.a(__syscall_fcntl.o)
 .comment       0x00001091       0x12 /opt/RidgeRun/arm-eabi-uclibc/lib/gcc/arm-linux-uclibcgnueabi/4.1.1/../../../../arm-linux-uclibcgnueabi/lib/libc.a(__syscall_fcntl64.o)
 .comment       0x000010a3       0x12 /opt/RidgeRun/arm-eabi-uclibc/lib/gcc/arm-linux-uclibcgnueabi/4.1.1/../../../../arm-linux-uclibcgnueabi/lib/libc.a(access.o)
 .comment       0x000010b5       0x12 /opt/RidgeRun/arm-eabi-uclibc/lib/gcc/arm-linux-uclibcgnueabi/4.1.1/../../../../arm-linux-uclibcgnueabi/lib/libc.a(chdir.o)
 .comment       0x000010c7       0x12 /opt/RidgeRun/arm-eabi-uclibc/lib/gcc/arm-linux-uclibcgnueabi/4.1.1/../../../../arm-linux-uclibcgnueabi/lib/libc.a(close.o)
 .comment       0x000010d9       0x12 /opt/RidgeRun/arm-eabi-uclibc/lib/gcc/arm-linux-uclibcgnueabi/4.1.1/../../../../arm-linux-uclibcgnueabi/lib/libc.a(getcwd.o)
 .comment       0x000010eb       0x12 /opt/RidgeRun/arm-eabi-uclibc/lib/gcc/arm-linux-uclibcgnueabi/4.1.1/../../../../arm-linux-uclibcgnueabi/lib/libc.a(getpagesize.o)
 .comment       0x000010fd       0x12 /opt/RidgeRun/arm-eabi-uclibc/lib/gcc/arm-linux-uclibcgnueabi/4.1.1/../../../../arm-linux-uclibcgnueabi/lib/libc.a(gettimeofday.o)
 .comment       0x0000110f       0x12 /opt/RidgeRun/arm-eabi-uclibc/lib/gcc/arm-linux-uclibcgnueabi/4.1.1/../../../../arm-linux-uclibcgnueabi/lib/libc.a(ioctl.o)
 .comment       0x00001121       0x12 /opt/RidgeRun/arm-eabi-uclibc/lib/gcc/arm-linux-uclibcgnueabi/4.1.1/../../../../arm-linux-uclibcgnueabi/lib/libc.a(longjmp.o)
 .comment       0x00001133       0x12 /opt/RidgeRun/arm-eabi-uclibc/lib/gcc/arm-linux-uclibcgnueabi/4.1.1/../../../../arm-linux-uclibcgnueabi/lib/libc.a(mkdir.o)
 .comment       0x00001145       0x12 /opt/RidgeRun/arm-eabi-uclibc/lib/gcc/arm-linux-uclibcgnueabi/4.1.1/../../../../arm-linux-uclibcgnueabi/lib/libc.a(mmap.o)
 .comment       0x00001157       0x12 /opt/RidgeRun/arm-eabi-uclibc/lib/gcc/arm-linux-uclibcgnueabi/4.1.1/../../../../arm-linux-uclibcgnueabi/lib/libc.a(munmap.o)
 .comment       0x00001169       0x12 /opt/RidgeRun/arm-eabi-uclibc/lib/gcc/arm-linux-uclibcgnueabi/4.1.1/../../../../arm-linux-uclibcgnueabi/lib/libc.a(open.o)
 .comment       0x0000117b       0x12 /opt/RidgeRun/arm-eabi-uclibc/lib/gcc/arm-linux-uclibcgnueabi/4.1.1/../../../../arm-linux-uclibcgnueabi/lib/libc.a(read.o)
 .comment       0x0000118d       0x12 /opt/RidgeRun/arm-eabi-uclibc/lib/gcc/arm-linux-uclibcgnueabi/4.1.1/../../../../arm-linux-uclibcgnueabi/lib/libc.a(sigprocmask.o)
 .comment       0x0000119f       0x12 /opt/RidgeRun/arm-eabi-uclibc/lib/gcc/arm-linux-uclibcgnueabi/4.1.1/../../../../arm-linux-uclibcgnueabi/lib/libc.a(stat.o)
 .comment       0x000011b1       0x12 /opt/RidgeRun/arm-eabi-uclibc/lib/gcc/arm-linux-uclibcgnueabi/4.1.1/../../../../arm-linux-uclibcgnueabi/lib/libc.a(sync.o)
 .comment       0x000011c3       0x12 /opt/RidgeRun/arm-eabi-uclibc/lib/gcc/arm-linux-uclibcgnueabi/4.1.1/../../../../arm-linux-uclibcgnueabi/lib/libc.a(write.o)
 .comment       0x000011d5       0x12 /opt/RidgeRun/arm-eabi-uclibc/lib/gcc/arm-linux-uclibcgnueabi/4.1.1/../../../../arm-linux-uclibcgnueabi/lib/libc.a(xstatconv.o)
 .comment       0x000011e7       0x12 /opt/RidgeRun/arm-eabi-uclibc/lib/gcc/arm-linux-uclibcgnueabi/4.1.1/../../../../arm-linux-uclibcgnueabi/lib/libc.a(__C_ctype_tolower.o)
 .comment       0x000011f9       0x12 /opt/RidgeRun/arm-eabi-uclibc/lib/gcc/arm-linux-uclibcgnueabi/4.1.1/../../../../arm-linux-uclibcgnueabi/lib/libc.a(__C_ctype_toupper.o)
 .comment       0x0000120b       0x12 /opt/RidgeRun/arm-eabi-uclibc/lib/gcc/arm-linux-uclibcgnueabi/4.1.1/../../../../arm-linux-uclibcgnueabi/lib/libc.a(alphasort.o)
 .comment       0x0000121d       0x12 /opt/RidgeRun/arm-eabi-uclibc/lib/gcc/arm-linux-uclibcgnueabi/4.1.1/../../../../arm-linux-uclibcgnueabi/lib/libc.a(closedir.o)
 .comment       0x0000122f       0x12 /opt/RidgeRun/arm-eabi-uclibc/lib/gcc/arm-linux-uclibcgnueabi/4.1.1/../../../../arm-linux-uclibcgnueabi/lib/libc.a(opendir.o)
 .comment       0x00001241       0x12 /opt/RidgeRun/arm-eabi-uclibc/lib/gcc/arm-linux-uclibcgnueabi/4.1.1/../../../../arm-linux-uclibcgnueabi/lib/libc.a(scandir.o)
 .comment       0x00001253       0x12 /opt/RidgeRun/arm-eabi-uclibc/lib/gcc/arm-linux-uclibcgnueabi/4.1.1/../../../../arm-linux-uclibcgnueabi/lib/libc.a(errno.o)
 .comment       0x00001265       0x12 /opt/RidgeRun/arm-eabi-uclibc/lib/gcc/arm-linux-uclibcgnueabi/4.1.1/../../../../arm-linux-uclibcgnueabi/lib/libc.a(fclose.o)
 .comment       0x00001277       0x12 /opt/RidgeRun/arm-eabi-uclibc/lib/gcc/arm-linux-uclibcgnueabi/4.1.1/../../../../arm-linux-uclibcgnueabi/lib/libc.a(fopen.o)
 .comment       0x00001289       0x12 /opt/RidgeRun/arm-eabi-uclibc/lib/gcc/arm-linux-uclibcgnueabi/4.1.1/../../../../arm-linux-uclibcgnueabi/lib/libc.a(fseeko.o)
 .comment       0x0000129b       0x12 /opt/RidgeRun/arm-eabi-uclibc/lib/gcc/arm-linux-uclibcgnueabi/4.1.1/../../../../arm-linux-uclibcgnueabi/lib/libc.a(ftello.o)
 .comment       0x000012ad       0x12 /opt/RidgeRun/arm-eabi-uclibc/lib/gcc/arm-linux-uclibcgnueabi/4.1.1/../../../../arm-linux-uclibcgnueabi/lib/libc.a(perror.o)
 .comment       0x000012bf       0x12 /opt/RidgeRun/arm-eabi-uclibc/lib/gcc/arm-linux-uclibcgnueabi/4.1.1/../../../../arm-linux-uclibcgnueabi/lib/libc.a(puts.o)
 .comment       0x000012d1       0x12 /opt/RidgeRun/arm-eabi-uclibc/lib/gcc/arm-linux-uclibcgnueabi/4.1.1/../../../../arm-linux-uclibcgnueabi/lib/libc.a(remove.o)
 .comment       0x000012e3       0x12 /opt/RidgeRun/arm-eabi-uclibc/lib/gcc/arm-linux-uclibcgnueabi/4.1.1/../../../../arm-linux-uclibcgnueabi/lib/libc.a(rewind.o)
 .comment       0x000012f5       0x12 /opt/RidgeRun/arm-eabi-uclibc/lib/gcc/arm-linux-uclibcgnueabi/4.1.1/../../../../arm-linux-uclibcgnueabi/lib/libc.a(printf.o)
 .comment       0x00001307       0x12 /opt/RidgeRun/arm-eabi-uclibc/lib/gcc/arm-linux-uclibcgnueabi/4.1.1/../../../../arm-linux-uclibcgnueabi/lib/libc.a(vsprintf.o)
 .comment       0x00001319       0x12 /opt/RidgeRun/arm-eabi-uclibc/lib/gcc/arm-linux-uclibcgnueabi/4.1.1/../../../../arm-linux-uclibcgnueabi/lib/libc.a(fprintf.o)
 .comment       0x0000132b       0x12 /opt/RidgeRun/arm-eabi-uclibc/lib/gcc/arm-linux-uclibcgnueabi/4.1.1/../../../../arm-linux-uclibcgnueabi/lib/libc.a(snprintf.o)
 .comment       0x0000133d       0x12 /opt/RidgeRun/arm-eabi-uclibc/lib/gcc/arm-linux-uclibcgnueabi/4.1.1/../../../../arm-linux-uclibcgnueabi/lib/libc.a(asprintf.o)
 .comment       0x0000134f       0x12 /opt/RidgeRun/arm-eabi-uclibc/lib/gcc/arm-linux-uclibcgnueabi/4.1.1/../../../../arm-linux-uclibcgnueabi/lib/libc.a(sprintf.o)
 .comment       0x00001361       0x12 /opt/RidgeRun/arm-eabi-uclibc/lib/gcc/arm-linux-uclibcgnueabi/4.1.1/../../../../arm-linux-uclibcgnueabi/lib/libc.a(vasprintf.o)
 .comment       0x00001373       0x12 /opt/RidgeRun/arm-eabi-uclibc/lib/gcc/arm-linux-uclibcgnueabi/4.1.1/../../../../arm-linux-uclibcgnueabi/lib/libc.a(vsnprintf.o)
 .comment       0x00001385       0x12 /opt/RidgeRun/arm-eabi-uclibc/lib/gcc/arm-linux-uclibcgnueabi/4.1.1/../../../../arm-linux-uclibcgnueabi/lib/libc.a(fseeko64.o)
 .comment       0x00001397       0x12 /opt/RidgeRun/arm-eabi-uclibc/lib/gcc/arm-linux-uclibcgnueabi/4.1.1/../../../../arm-linux-uclibcgnueabi/lib/libc.a(ftello64.o)
 .comment       0x000013a9       0x12 /opt/RidgeRun/arm-eabi-uclibc/lib/gcc/arm-linux-uclibcgnueabi/4.1.1/../../../../arm-linux-uclibcgnueabi/lib/libc.a(_adjust_pos.o)
 .comment       0x000013bb       0x12 /opt/RidgeRun/arm-eabi-uclibc/lib/gcc/arm-linux-uclibcgnueabi/4.1.1/../../../../arm-linux-uclibcgnueabi/lib/libc.a(_fopen.o)
 .comment       0x000013cd       0x12 /opt/RidgeRun/arm-eabi-uclibc/lib/gcc/arm-linux-uclibcgnueabi/4.1.1/../../../../arm-linux-uclibcgnueabi/lib/libc.a(_stdio.o)
 .comment       0x000013df       0x12 /opt/RidgeRun/arm-eabi-uclibc/lib/gcc/arm-linux-uclibcgnueabi/4.1.1/../../../../arm-linux-uclibcgnueabi/lib/libc.a(_wcommit.o)
 .comment       0x000013f1       0x12 /opt/RidgeRun/arm-eabi-uclibc/lib/gcc/arm-linux-uclibcgnueabi/4.1.1/../../../../arm-linux-uclibcgnueabi/lib/libc.a(_cs_funcs.o)
 .comment       0x00001403       0x12 /opt/RidgeRun/arm-eabi-uclibc/lib/gcc/arm-linux-uclibcgnueabi/4.1.1/../../../../arm-linux-uclibcgnueabi/lib/libc.a(open_memstream.o)
 .comment       0x00001415       0x12 /opt/RidgeRun/arm-eabi-uclibc/lib/gcc/arm-linux-uclibcgnueabi/4.1.1/../../../../arm-linux-uclibcgnueabi/lib/libc.a(vfprintf.o)
 .comment       0x00001427       0x12 /opt/RidgeRun/arm-eabi-uclibc/lib/gcc/arm-linux-uclibcgnueabi/4.1.1/../../../../arm-linux-uclibcgnueabi/lib/libc.a(_ppfs_init.o)
 .comment       0x00001439       0x12 /opt/RidgeRun/arm-eabi-uclibc/lib/gcc/arm-linux-uclibcgnueabi/4.1.1/../../../../arm-linux-uclibcgnueabi/lib/libc.a(_ppfs_prepargs.o)
 .comment       0x0000144b       0x12 /opt/RidgeRun/arm-eabi-uclibc/lib/gcc/arm-linux-uclibcgnueabi/4.1.1/../../../../arm-linux-uclibcgnueabi/lib/libc.a(_ppfs_setargs.o)
 .comment       0x0000145d       0x12 /opt/RidgeRun/arm-eabi-uclibc/lib/gcc/arm-linux-uclibcgnueabi/4.1.1/../../../../arm-linux-uclibcgnueabi/lib/libc.a(_ppfs_parsespec.o)
 .comment       0x0000146f       0x12 /opt/RidgeRun/arm-eabi-uclibc/lib/gcc/arm-linux-uclibcgnueabi/4.1.1/../../../../arm-linux-uclibcgnueabi/lib/libc.a(sscanf.o)
 .comment       0x00001481       0x12 /opt/RidgeRun/arm-eabi-uclibc/lib/gcc/arm-linux-uclibcgnueabi/4.1.1/../../../../arm-linux-uclibcgnueabi/lib/libc.a(vsscanf.o)
 .comment       0x00001493       0x12 /opt/RidgeRun/arm-eabi-uclibc/lib/gcc/arm-linux-uclibcgnueabi/4.1.1/../../../../arm-linux-uclibcgnueabi/lib/libc.a(ferror.o)
 .comment       0x000014a5       0x12 /opt/RidgeRun/arm-eabi-uclibc/lib/gcc/arm-linux-uclibcgnueabi/4.1.1/../../../../arm-linux-uclibcgnueabi/lib/libc.a(fflush.o)
 .comment       0x000014b7       0x12 /opt/RidgeRun/arm-eabi-uclibc/lib/gcc/arm-linux-uclibcgnueabi/4.1.1/../../../../arm-linux-uclibcgnueabi/lib/libc.a(fgetc.o)
 .comment       0x000014c9       0x12 /opt/RidgeRun/arm-eabi-uclibc/lib/gcc/arm-linux-uclibcgnueabi/4.1.1/../../../../arm-linux-uclibcgnueabi/lib/libc.a(fgets.o)
 .comment       0x000014db       0x12 /opt/RidgeRun/arm-eabi-uclibc/lib/gcc/arm-linux-uclibcgnueabi/4.1.1/../../../../arm-linux-uclibcgnueabi/lib/libc.a(fputc.o)
 .comment       0x000014ed       0x12 /opt/RidgeRun/arm-eabi-uclibc/lib/gcc/arm-linux-uclibcgnueabi/4.1.1/../../../../arm-linux-uclibcgnueabi/lib/libc.a(fread.o)
 .comment       0x000014ff       0x12 /opt/RidgeRun/arm-eabi-uclibc/lib/gcc/arm-linux-uclibcgnueabi/4.1.1/../../../../arm-linux-uclibcgnueabi/lib/libc.a(fwrite.o)
 .comment       0x00001511       0x12 /opt/RidgeRun/arm-eabi-uclibc/lib/gcc/arm-linux-uclibcgnueabi/4.1.1/../../../../arm-linux-uclibcgnueabi/lib/libc.a(putchar.o)
 .comment       0x00001523       0x12 /opt/RidgeRun/arm-eabi-uclibc/lib/gcc/arm-linux-uclibcgnueabi/4.1.1/../../../../arm-linux-uclibcgnueabi/lib/libc.a(fflush_unlocked.o)
 .comment       0x00001535       0x12 /opt/RidgeRun/arm-eabi-uclibc/lib/gcc/arm-linux-uclibcgnueabi/4.1.1/../../../../arm-linux-uclibcgnueabi/lib/libc.a(fgetc_unlocked.o)
 .comment       0x00001547       0x12 /opt/RidgeRun/arm-eabi-uclibc/lib/gcc/arm-linux-uclibcgnueabi/4.1.1/../../../../arm-linux-uclibcgnueabi/lib/libc.a(fgets_unlocked.o)
 .comment       0x00001559       0x12 /opt/RidgeRun/arm-eabi-uclibc/lib/gcc/arm-linux-uclibcgnueabi/4.1.1/../../../../arm-linux-uclibcgnueabi/lib/libc.a(fputc_unlocked.o)
 .comment       0x0000156b       0x12 /opt/RidgeRun/arm-eabi-uclibc/lib/gcc/arm-linux-uclibcgnueabi/4.1.1/../../../../arm-linux-uclibcgnueabi/lib/libc.a(fputs_unlocked.o)
 .comment       0x0000157d       0x12 /opt/RidgeRun/arm-eabi-uclibc/lib/gcc/arm-linux-uclibcgnueabi/4.1.1/../../../../arm-linux-uclibcgnueabi/lib/libc.a(fread_unlocked.o)
 .comment       0x0000158f       0x12 /opt/RidgeRun/arm-eabi-uclibc/lib/gcc/arm-linux-uclibcgnueabi/4.1.1/../../../../arm-linux-uclibcgnueabi/lib/libc.a(fwrite_unlocked.o)
 .comment       0x000015a1       0x12 /opt/RidgeRun/arm-eabi-uclibc/lib/gcc/arm-linux-uclibcgnueabi/4.1.1/../../../../arm-linux-uclibcgnueabi/lib/libc.a(strcat.o)
 .comment       0x000015b3       0x12 /opt/RidgeRun/arm-eabi-uclibc/lib/gcc/arm-linux-uclibcgnueabi/4.1.1/../../../../arm-linux-uclibcgnueabi/lib/libc.a(strcpy.o)
 .comment       0x000015c5       0x12 /opt/RidgeRun/arm-eabi-uclibc/lib/gcc/arm-linux-uclibcgnueabi/4.1.1/../../../../arm-linux-uclibcgnueabi/lib/libc.a(strncpy.o)
 .comment       0x000015d7       0x12 /opt/RidgeRun/arm-eabi-uclibc/lib/gcc/arm-linux-uclibcgnueabi/4.1.1/../../../../arm-linux-uclibcgnueabi/lib/libc.a(strnlen.o)
 .comment       0x000015e9       0x12 /opt/RidgeRun/arm-eabi-uclibc/lib/gcc/arm-linux-uclibcgnueabi/4.1.1/../../../../arm-linux-uclibcgnueabi/lib/libc.a(strrchr.o)
 .comment       0x000015fb       0x12 /opt/RidgeRun/arm-eabi-uclibc/lib/gcc/arm-linux-uclibcgnueabi/4.1.1/../../../../arm-linux-uclibcgnueabi/lib/libc.a(strstr.o)
 .comment       0x0000160d       0x12 /opt/RidgeRun/arm-eabi-uclibc/lib/gcc/arm-linux-uclibcgnueabi/4.1.1/../../../../arm-linux-uclibcgnueabi/lib/libc.a(__glibc_strerror_r.o)
 .comment       0x0000161f       0x12 /opt/RidgeRun/arm-eabi-uclibc/lib/gcc/arm-linux-uclibcgnueabi/4.1.1/../../../../arm-linux-uclibcgnueabi/lib/libc.a(__xpg_strerror_r.o)
 .comment       0x00001631       0x12 /opt/RidgeRun/arm-eabi-uclibc/lib/gcc/arm-linux-uclibcgnueabi/4.1.1/../../../../arm-linux-uclibcgnueabi/lib/libc.a(_string_syserrmsgs.o)
 .comment       0x00001643       0x12 /opt/RidgeRun/arm-eabi-uclibc/lib/gcc/arm-linux-uclibcgnueabi/4.1.1/../../../../arm-linux-uclibcgnueabi/lib/libc.a(strcasecmp.o)
 .comment       0x00001655       0x12 /opt/RidgeRun/arm-eabi-uclibc/lib/gcc/arm-linux-uclibcgnueabi/4.1.1/../../../../arm-linux-uclibcgnueabi/lib/libc.a(strdup.o)
 .comment       0x00001667       0x12 /opt/RidgeRun/arm-eabi-uclibc/lib/gcc/arm-linux-uclibcgnueabi/4.1.1/../../../../arm-linux-uclibcgnueabi/lib/libc.a(strerror.o)
 .comment       0x00001679       0x12 /opt/RidgeRun/arm-eabi-uclibc/lib/gcc/arm-linux-uclibcgnueabi/4.1.1/../../../../arm-linux-uclibcgnueabi/lib/libc.a(strncasecmp.o)
 .comment       0x0000168b       0x12 /opt/RidgeRun/arm-eabi-uclibc/lib/gcc/arm-linux-uclibcgnueabi/4.1.1/../../../../arm-linux-uclibcgnueabi/lib/libc.a(isatty.o)
 .comment       0x0000169d       0x12 /opt/RidgeRun/arm-eabi-uclibc/lib/gcc/arm-linux-uclibcgnueabi/4.1.1/../../../../arm-linux-uclibcgnueabi/lib/libc.a(tcgetattr.o)
 .comment       0x000016af       0x12 /opt/RidgeRun/arm-eabi-uclibc/lib/gcc/arm-linux-uclibcgnueabi/4.1.1/../../../../arm-linux-uclibcgnueabi/lib/libc.a(signal.o)
 .comment       0x000016c1       0x12 /opt/RidgeRun/arm-eabi-uclibc/lib/gcc/arm-linux-uclibcgnueabi/4.1.1/../../../../arm-linux-uclibcgnueabi/lib/libc.a(sigsetops.o)
 .comment       0x000016d3       0x12 /opt/RidgeRun/arm-eabi-uclibc/lib/gcc/arm-linux-uclibcgnueabi/4.1.1/../../../../arm-linux-uclibcgnueabi/lib/libc.a(malloc.o)
 .comment       0x000016e5       0x12 /opt/RidgeRun/arm-eabi-uclibc/lib/gcc/arm-linux-uclibcgnueabi/4.1.1/../../../../arm-linux-uclibcgnueabi/lib/libc.a(calloc.o)
 .comment       0x000016f7       0x12 /opt/RidgeRun/arm-eabi-uclibc/lib/gcc/arm-linux-uclibcgnueabi/4.1.1/../../../../arm-linux-uclibcgnueabi/lib/libc.a(free.o)
 .comment       0x00001709       0x12 /opt/RidgeRun/arm-eabi-uclibc/lib/gcc/arm-linux-uclibcgnueabi/4.1.1/../../../../arm-linux-uclibcgnueabi/lib/libc.a(realloc.o)
 .comment       0x0000171b       0x12 /opt/RidgeRun/arm-eabi-uclibc/lib/gcc/arm-linux-uclibcgnueabi/4.1.1/../../../../arm-linux-uclibcgnueabi/lib/libc.a(heap_alloc.o)
 .comment       0x0000172d       0x12 /opt/RidgeRun/arm-eabi-uclibc/lib/gcc/arm-linux-uclibcgnueabi/4.1.1/../../../../arm-linux-uclibcgnueabi/lib/libc.a(heap_alloc_at.o)
 .comment       0x0000173f       0x12 /opt/RidgeRun/arm-eabi-uclibc/lib/gcc/arm-linux-uclibcgnueabi/4.1.1/../../../../arm-linux-uclibcgnueabi/lib/libc.a(heap_free.o)
 .comment       0x00001751       0x12 /opt/RidgeRun/arm-eabi-uclibc/lib/gcc/arm-linux-uclibcgnueabi/4.1.1/../../../../arm-linux-uclibcgnueabi/lib/libc.a(abort.o)
 .comment       0x00001763       0x12 /opt/RidgeRun/arm-eabi-uclibc/lib/gcc/arm-linux-uclibcgnueabi/4.1.1/../../../../arm-linux-uclibcgnueabi/lib/libc.a(system.o)
 .comment       0x00001775       0x12 /opt/RidgeRun/arm-eabi-uclibc/lib/gcc/arm-linux-uclibcgnueabi/4.1.1/../../../../arm-linux-uclibcgnueabi/lib/libc.a(atol.o)
 .comment       0x00001787       0x12 /opt/RidgeRun/arm-eabi-uclibc/lib/gcc/arm-linux-uclibcgnueabi/4.1.1/../../../../arm-linux-uclibcgnueabi/lib/libc.a(strtol.o)
 .comment       0x00001799       0x12 /opt/RidgeRun/arm-eabi-uclibc/lib/gcc/arm-linux-uclibcgnueabi/4.1.1/../../../../arm-linux-uclibcgnueabi/lib/libc.a(_stdlib_strto_l.o)
 .comment       0x000017ab       0x12 /opt/RidgeRun/arm-eabi-uclibc/lib/gcc/arm-linux-uclibcgnueabi/4.1.1/../../../../arm-linux-uclibcgnueabi/lib/libc.a(qsort.o)
 .comment       0x000017bd       0x12 /opt/RidgeRun/arm-eabi-uclibc/lib/gcc/arm-linux-uclibcgnueabi/4.1.1/../../../../arm-linux-uclibcgnueabi/lib/libc.a(exit.o)
 .comment       0x000017cf       0x12 /opt/RidgeRun/arm-eabi-uclibc/lib/gcc/arm-linux-uclibcgnueabi/4.1.1/../../../../arm-linux-uclibcgnueabi/lib/libc.a(execl.o)
 .comment       0x000017e1       0x12 /opt/RidgeRun/arm-eabi-uclibc/lib/gcc/arm-linux-uclibcgnueabi/4.1.1/../../../../arm-linux-uclibcgnueabi/lib/libc.a(usleep.o)
 .comment       0x000017f3       0x12 /opt/RidgeRun/arm-eabi-uclibc/lib/gcc/arm-linux-uclibcgnueabi/4.1.1/../../../../arm-linux-uclibcgnueabi/lib/libc.a(__uClibc_main.o)
 .comment       0x00001805       0x12 /opt/RidgeRun/arm-eabi-uclibc/lib/gcc/arm-linux-uclibcgnueabi/4.1.1/../../../../arm-linux-uclibcgnueabi/lib/libc.a(weaks.o)
 .comment       0x00001817       0x12 /opt/RidgeRun/arm-eabi-uclibc/lib/gcc/arm-linux-uclibcgnueabi/4.1.1/../../../../arm-linux-uclibcgnueabi/lib/libc.a(libc-cancellation.o)
 .comment       0x00001829       0x12 /opt/RidgeRun/arm-eabi-uclibc/lib/gcc/arm-linux-uclibcgnueabi/4.1.1/../../../../arm-linux-uclibcgnueabi/lib/libc.a(libc-tls.o)
 .comment       0x0000183b       0x12 /opt/RidgeRun/arm-eabi-uclibc/lib/gcc/arm-linux-uclibcgnueabi/4.1.1/../../../../arm-linux-uclibcgnueabi/lib/libc.a(libc_multiple_threads.o)
 .comment       0x0000184d       0x12 /opt/RidgeRun/arm-eabi-uclibc/lib/gcc/arm-linux-uclibcgnueabi/4.1.1/../../../../arm-linux-uclibcgnueabi/lib/libc.a(sigaction.o)
 .comment       0x0000185f       0x12 /opt/RidgeRun/arm-eabi-uclibc/lib/gcc/arm-linux-uclibcgnueabi/4.1.1/../../../../arm-linux-uclibcgnueabi/lib/libc.a(__syscall_rt_sigaction.o)
 .comment       0x00001871       0x12 /opt/RidgeRun/arm-eabi-uclibc/lib/gcc/arm-linux-uclibcgnueabi/4.1.1/../../../../arm-linux-uclibcgnueabi/lib/libc.a(_exit.o)
 .comment       0x00001883       0x12 /opt/RidgeRun/arm-eabi-uclibc/lib/gcc/arm-linux-uclibcgnueabi/4.1.1/../../../../arm-linux-uclibcgnueabi/lib/libc.a(execve.o)
 .comment       0x00001895       0x12 /opt/RidgeRun/arm-eabi-uclibc/lib/gcc/arm-linux-uclibcgnueabi/4.1.1/../../../../arm-linux-uclibcgnueabi/lib/libc.a(fstat.o)
 .comment       0x000018a7       0x12 /opt/RidgeRun/arm-eabi-uclibc/lib/gcc/arm-linux-uclibcgnueabi/4.1.1/../../../../arm-linux-uclibcgnueabi/lib/libc.a(getegid.o)
 .comment       0x000018b9       0x12 /opt/RidgeRun/arm-eabi-uclibc/lib/gcc/arm-linux-uclibcgnueabi/4.1.1/../../../../arm-linux-uclibcgnueabi/lib/libc.a(geteuid.o)
 .comment       0x000018cb       0x12 /opt/RidgeRun/arm-eabi-uclibc/lib/gcc/arm-linux-uclibcgnueabi/4.1.1/../../../../arm-linux-uclibcgnueabi/lib/libc.a(getgid.o)
 .comment       0x000018dd       0x12 /opt/RidgeRun/arm-eabi-uclibc/lib/gcc/arm-linux-uclibcgnueabi/4.1.1/../../../../arm-linux-uclibcgnueabi/lib/libc.a(getuid.o)
 .comment       0x000018ef       0x12 /opt/RidgeRun/arm-eabi-uclibc/lib/gcc/arm-linux-uclibcgnueabi/4.1.1/../../../../arm-linux-uclibcgnueabi/lib/libc.a(llseek.o)
 .comment       0x00001901       0x12 /opt/RidgeRun/arm-eabi-uclibc/lib/gcc/arm-linux-uclibcgnueabi/4.1.1/../../../../arm-linux-uclibcgnueabi/lib/libc.a(nanosleep.o)
 .comment       0x00001913       0x12 /opt/RidgeRun/arm-eabi-uclibc/lib/gcc/arm-linux-uclibcgnueabi/4.1.1/../../../../arm-linux-uclibcgnueabi/lib/libc.a(rmdir.o)
 .comment       0x00001925       0x12 /opt/RidgeRun/arm-eabi-uclibc/lib/gcc/arm-linux-uclibcgnueabi/4.1.1/../../../../arm-linux-uclibcgnueabi/lib/libc.a(sbrk.o)
 .comment       0x00001937       0x12 /opt/RidgeRun/arm-eabi-uclibc/lib/gcc/arm-linux-uclibcgnueabi/4.1.1/../../../../arm-linux-uclibcgnueabi/lib/libc.a(unlink.o)
 .comment       0x00001949       0x12 /opt/RidgeRun/arm-eabi-uclibc/lib/gcc/arm-linux-uclibcgnueabi/4.1.1/../../../../arm-linux-uclibcgnueabi/lib/libc.a(waitpid.o)
 .comment       0x0000195b       0x12 /opt/RidgeRun/arm-eabi-uclibc/lib/gcc/arm-linux-uclibcgnueabi/4.1.1/../../../../arm-linux-uclibcgnueabi/lib/libc.a(__C_ctype_b.o)
 .comment       0x0000196d       0x12 /opt/RidgeRun/arm-eabi-uclibc/lib/gcc/arm-linux-uclibcgnueabi/4.1.1/../../../../arm-linux-uclibcgnueabi/lib/libc.a(readdir.o)
 .comment       0x0000197f       0x12 /opt/RidgeRun/arm-eabi-uclibc/lib/gcc/arm-linux-uclibcgnueabi/4.1.1/../../../../arm-linux-uclibcgnueabi/lib/libc.a(wcrtomb.o)
 .comment       0x00001991       0x12 /opt/RidgeRun/arm-eabi-uclibc/lib/gcc/arm-linux-uclibcgnueabi/4.1.1/../../../../arm-linux-uclibcgnueabi/lib/libc.a(wcsrtombs.o)
 .comment       0x000019a3       0x12 /opt/RidgeRun/arm-eabi-uclibc/lib/gcc/arm-linux-uclibcgnueabi/4.1.1/../../../../arm-linux-uclibcgnueabi/lib/libc.a(wcsnrtombs.o)
 .comment       0x000019b5       0x12 /opt/RidgeRun/arm-eabi-uclibc/lib/gcc/arm-linux-uclibcgnueabi/4.1.1/../../../../arm-linux-uclibcgnueabi/lib/libc.a(_READ.o)
 .comment       0x000019c7       0x12 /opt/RidgeRun/arm-eabi-uclibc/lib/gcc/arm-linux-uclibcgnueabi/4.1.1/../../../../arm-linux-uclibcgnueabi/lib/libc.a(_WRITE.o)
 .comment       0x000019d9       0x12 /opt/RidgeRun/arm-eabi-uclibc/lib/gcc/arm-linux-uclibcgnueabi/4.1.1/../../../../arm-linux-uclibcgnueabi/lib/libc.a(_fwrite.o)
 .comment       0x000019eb       0x12 /opt/RidgeRun/arm-eabi-uclibc/lib/gcc/arm-linux-uclibcgnueabi/4.1.1/../../../../arm-linux-uclibcgnueabi/lib/libc.a(_rfill.o)
 .comment       0x000019fd       0x12 /opt/RidgeRun/arm-eabi-uclibc/lib/gcc/arm-linux-uclibcgnueabi/4.1.1/../../../../arm-linux-uclibcgnueabi/lib/libc.a(_trans2r.o)
 .comment       0x00001a0f       0x12 /opt/RidgeRun/arm-eabi-uclibc/lib/gcc/arm-linux-uclibcgnueabi/4.1.1/../../../../arm-linux-uclibcgnueabi/lib/libc.a(_trans2w.o)
 .comment       0x00001a21       0x12 /opt/RidgeRun/arm-eabi-uclibc/lib/gcc/arm-linux-uclibcgnueabi/4.1.1/../../../../arm-linux-uclibcgnueabi/lib/libc.a(_load_inttype.o)
 .comment       0x00001a33       0x12 /opt/RidgeRun/arm-eabi-uclibc/lib/gcc/arm-linux-uclibcgnueabi/4.1.1/../../../../arm-linux-uclibcgnueabi/lib/libc.a(_store_inttype.o)
 .comment       0x00001a45       0x12 /opt/RidgeRun/arm-eabi-uclibc/lib/gcc/arm-linux-uclibcgnueabi/4.1.1/../../../../arm-linux-uclibcgnueabi/lib/libc.a(_uintmaxtostr.o)
 .comment       0x00001a57       0x12 /opt/RidgeRun/arm-eabi-uclibc/lib/gcc/arm-linux-uclibcgnueabi/4.1.1/../../../../arm-linux-uclibcgnueabi/lib/libc.a(_fpmaxtostr.o)
 .comment       0x00001a69       0x12 /opt/RidgeRun/arm-eabi-uclibc/lib/gcc/arm-linux-uclibcgnueabi/4.1.1/../../../../arm-linux-uclibcgnueabi/lib/libc.a(fopencookie.o)
 .comment       0x00001a7b       0x12 /opt/RidgeRun/arm-eabi-uclibc/lib/gcc/arm-linux-uclibcgnueabi/4.1.1/../../../../arm-linux-uclibcgnueabi/lib/libc.a(vfscanf.o)
 .comment       0x00001a8d       0x12 /opt/RidgeRun/arm-eabi-uclibc/lib/gcc/arm-linux-uclibcgnueabi/4.1.1/../../../../arm-linux-uclibcgnueabi/lib/libc.a(__scan_cookie.o)
 .comment       0x00001a9f       0x12 /opt/RidgeRun/arm-eabi-uclibc/lib/gcc/arm-linux-uclibcgnueabi/4.1.1/../../../../arm-linux-uclibcgnueabi/lib/libc.a(__psfs_parse_spec.o)
 .comment       0x00001ab1       0x12 /opt/RidgeRun/arm-eabi-uclibc/lib/gcc/arm-linux-uclibcgnueabi/4.1.1/../../../../arm-linux-uclibcgnueabi/lib/libc.a(__psfs_do_numeric.o)
 .comment       0x00001ac3       0x12 /opt/RidgeRun/arm-eabi-uclibc/lib/gcc/arm-linux-uclibcgnueabi/4.1.1/../../../../arm-linux-uclibcgnueabi/lib/libc.a(memchr.o)
 .comment       0x00001ad5       0x12 /opt/RidgeRun/arm-eabi-uclibc/lib/gcc/arm-linux-uclibcgnueabi/4.1.1/../../../../arm-linux-uclibcgnueabi/lib/libc.a(mempcpy.o)
 .comment       0x00001ae7       0x12 /opt/RidgeRun/arm-eabi-uclibc/lib/gcc/arm-linux-uclibcgnueabi/4.1.1/../../../../arm-linux-uclibcgnueabi/lib/libc.a(memrchr.o)
 .comment       0x00001af9       0x12 /opt/RidgeRun/arm-eabi-uclibc/lib/gcc/arm-linux-uclibcgnueabi/4.1.1/../../../../arm-linux-uclibcgnueabi/lib/libc.a(strchr.o)
 .comment       0x00001b0b       0x12 /opt/RidgeRun/arm-eabi-uclibc/lib/gcc/arm-linux-uclibcgnueabi/4.1.1/../../../../arm-linux-uclibcgnueabi/lib/libc.a(sigjmp.o)
 .comment       0x00001b1d       0x12 /opt/RidgeRun/arm-eabi-uclibc/lib/gcc/arm-linux-uclibcgnueabi/4.1.1/../../../../arm-linux-uclibcgnueabi/lib/libc.a(_stdlib_strto_ll.o)
 .comment       0x00001b2f       0x12 /opt/RidgeRun/arm-eabi-uclibc/lib/gcc/arm-linux-uclibcgnueabi/4.1.1/../../../../arm-linux-uclibcgnueabi/lib/libc.a(__strtofpmax.o)
 .comment       0x00001b41       0x12 /opt/RidgeRun/arm-eabi-uclibc/lib/gcc/arm-linux-uclibcgnueabi/4.1.1/../../../../arm-linux-uclibcgnueabi/lib/libc.a(dl-support.o)
 .comment       0x00001b53       0x12 /opt/RidgeRun/arm-eabi-uclibc/lib/gcc/arm-linux-uclibcgnueabi/4.1.1/../../../../arm-linux-uclibcgnueabi/lib/libc.a(brk.o)
 .comment       0x00001b65       0x12 /opt/RidgeRun/arm-eabi-uclibc/lib/gcc/arm-linux-uclibcgnueabi/4.1.1/../../../../arm-linux-uclibcgnueabi/lib/libc.a(__syscall_error.o)
 .comment       0x00001b77       0x12 /opt/RidgeRun/arm-eabi-uclibc/lib/gcc/arm-linux-uclibcgnueabi/4.1.1/../../../../arm-linux-uclibcgnueabi/lib/libc.a(getdents.o)
 .comment       0x00001b89       0x12 /opt/RidgeRun/arm-eabi-uclibc/lib/gcc/arm-linux-uclibcgnueabi/4.1.1/../../../../arm-linux-uclibcgnueabi/lib/libc.a(getdents64.o)
 .comment       0x00001b9b       0x12 /opt/RidgeRun/arm-eabi-uclibc/lib/gcc/arm-linux-uclibcgnueabi/4.1.1/../../../../arm-linux-uclibcgnueabi/lib/libc.a(wait4.o)
 .comment       0x00001bad       0x12 /opt/RidgeRun/arm-eabi-uclibc/lib/gcc/arm-linux-uclibcgnueabi/4.1.1/../../../../arm-linux-uclibcgnueabi/lib/libc.a(mbrtowc.o)
 .comment       0x00001bbf       0x12 /opt/RidgeRun/arm-eabi-uclibc/lib/gcc/arm-linux-uclibcgnueabi/4.1.1/../../../../arm-linux-uclibcgnueabi/lib/libc.a(mbsnrtowcs.o)
 .comment       0x00001bd1       0x12 /opt/RidgeRun/arm-eabi-uclibc/lib/gcc/arm-linux-uclibcgnueabi/4.1.1/../../../../arm-linux-uclibcgnueabi/lib/libc.a(ungetc.o)
 .comment       0x00001be3       0x12 /opt/RidgeRun/arm-eabi-uclibc/lib/gcc/arm-linux-uclibcgnueabi/4.1.1/crtend.o
 .comment       0x00001bf5       0x2f /opt/RidgeRun/arm-eabi-uclibc/lib/gcc/arm-linux-uclibcgnueabi/4.1.1/../../../../arm-linux-uclibcgnueabi/lib/crtn.o

.debug
 *(.debug)

.line
 *(.line)

.debug_srcinfo
 *(.debug_srcinfo)

.debug_sfnames
 *(.debug_sfnames)

.debug_aranges  0x00000000      0x2b0
 *(.debug_aranges)
 .debug_aranges
                0x00000000       0x28 /opt/RidgeRun/arm-eabi-uclibc/lib/gcc/arm-linux-uclibcgnueabi/4.1.1/../../../../arm-linux-uclibcgnueabi/lib/crti.o
 .debug_aranges
                0x00000028       0x20 /opt/RidgeRun/arm-eabi-uclibc/lib/gcc/arm-linux-uclibcgnueabi/4.1.1/libgcc.a(_udivsi3.o)
 .debug_aranges
                0x00000048       0x20 /opt/RidgeRun/arm-eabi-uclibc/lib/gcc/arm-linux-uclibcgnueabi/4.1.1/libgcc.a(_divsi3.o)
 .debug_aranges
                0x00000068       0x20 /opt/RidgeRun/arm-eabi-uclibc/lib/gcc/arm-linux-uclibcgnueabi/4.1.1/libgcc.a(_addsubdf3.o)
 .debug_aranges
                0x00000088       0x20 /opt/RidgeRun/arm-eabi-uclibc/lib/gcc/arm-linux-uclibcgnueabi/4.1.1/libgcc.a(_muldivdf3.o)
 .debug_aranges
                0x000000a8       0x20 /opt/RidgeRun/arm-eabi-uclibc/lib/gcc/arm-linux-uclibcgnueabi/4.1.1/libgcc.a(_cmpdf2.o)
 .debug_aranges
                0x000000c8       0x20 /opt/RidgeRun/arm-eabi-uclibc/lib/gcc/arm-linux-uclibcgnueabi/4.1.1/libgcc.a(_fixdfsi.o)
 .debug_aranges
                0x000000e8       0x20 /opt/RidgeRun/arm-eabi-uclibc/lib/gcc/arm-linux-uclibcgnueabi/4.1.1/libgcc.a(_fixunsdfsi.o)
 .debug_aranges
                0x00000108       0x20 /opt/RidgeRun/arm-eabi-uclibc/lib/gcc/arm-linux-uclibcgnueabi/4.1.1/libgcc.a(_addsubsf3.o)
 .debug_aranges
                0x00000128       0x20 /opt/RidgeRun/arm-eabi-uclibc/lib/gcc/arm-linux-uclibcgnueabi/4.1.1/libgcc.a(_muldivsf3.o)
 .debug_aranges
                0x00000148       0x20 /opt/RidgeRun/arm-eabi-uclibc/lib/gcc/arm-linux-uclibcgnueabi/4.1.1/libgcc.a(_aeabi_ldivmod.o)
 .debug_aranges
                0x00000168       0x20 /opt/RidgeRun/arm-eabi-uclibc/lib/gcc/arm-linux-uclibcgnueabi/4.1.1/libgcc.a(_aeabi_uldivmod.o)
 .debug_aranges
                0x00000188       0x20 /opt/RidgeRun/arm-eabi-uclibc/lib/gcc/arm-linux-uclibcgnueabi/4.1.1/libgcc.a(_dvmd_lnx.o)
 .debug_aranges
                0x000001a8       0x20 /opt/RidgeRun/arm-eabi-uclibc/lib/gcc/arm-linux-uclibcgnueabi/4.1.1/libgcc.a(bpabi.o)
 .debug_aranges
                0x000001c8       0x20 /opt/RidgeRun/arm-eabi-uclibc/lib/gcc/arm-linux-uclibcgnueabi/4.1.1/libgcc.a(_divdi3.o)
 .debug_aranges
                0x000001e8       0x20 /opt/RidgeRun/arm-eabi-uclibc/lib/gcc/arm-linux-uclibcgnueabi/4.1.1/libgcc.a(_udivdi3.o)
 .debug_aranges
                0x00000208       0x20 /opt/RidgeRun/arm-eabi-uclibc/lib/gcc/arm-linux-uclibcgnueabi/4.1.1/libgcc_eh.a(unwind-arm.o)
 .debug_aranges
                0x00000228       0x20 /opt/RidgeRun/arm-eabi-uclibc/lib/gcc/arm-linux-uclibcgnueabi/4.1.1/libgcc_eh.a(libunwind.o)
 .debug_aranges
                0x00000248       0x20 /opt/RidgeRun/arm-eabi-uclibc/lib/gcc/arm-linux-uclibcgnueabi/4.1.1/libgcc_eh.a(pr-support.o)
 .debug_aranges
                0x00000268       0x20 /opt/RidgeRun/arm-eabi-uclibc/lib/gcc/arm-linux-uclibcgnueabi/4.1.1/libgcc.a(_truncdfsf2.o)
 .debug_aranges
                0x00000288       0x28 /opt/RidgeRun/arm-eabi-uclibc/lib/gcc/arm-linux-uclibcgnueabi/4.1.1/../../../../arm-linux-uclibcgnueabi/lib/crtn.o

.debug_pubnames
                0x00000000      0x2b7
 *(.debug_pubnames)
 .debug_pubnames
                0x00000000       0x45 /opt/RidgeRun/arm-eabi-uclibc/lib/gcc/arm-linux-uclibcgnueabi/4.1.1/libgcc.a(bpabi.o)
 .debug_pubnames
                0x00000045       0x1f /opt/RidgeRun/arm-eabi-uclibc/lib/gcc/arm-linux-uclibcgnueabi/4.1.1/libgcc.a(_divdi3.o)
 .debug_pubnames
                0x00000064       0x20 /opt/RidgeRun/arm-eabi-uclibc/lib/gcc/arm-linux-uclibcgnueabi/4.1.1/libgcc.a(_udivdi3.o)
 .debug_pubnames
                0x00000084       0x20 /opt/RidgeRun/arm-eabi-uclibc/lib/gcc/arm-linux-uclibcgnueabi/4.1.1/libgcc.a(_clz.o)
 .debug_pubnames
                0x000000a4      0x192 /opt/RidgeRun/arm-eabi-uclibc/lib/gcc/arm-linux-uclibcgnueabi/4.1.1/libgcc_eh.a(unwind-arm.o)
 .debug_pubnames
                0x00000236       0x81 /opt/RidgeRun/arm-eabi-uclibc/lib/gcc/arm-linux-uclibcgnueabi/4.1.1/libgcc_eh.a(pr-support.o)

.debug_info     0x00000000     0x3309
 *(.debug_info .gnu.linkonce.wi.*)
 .debug_info    0x00000000       0x91 /opt/RidgeRun/arm-eabi-uclibc/lib/gcc/arm-linux-uclibcgnueabi/4.1.1/../../../../arm-linux-uclibcgnueabi/lib/crti.o
 .debug_info    0x00000091      0x106 /opt/RidgeRun/arm-eabi-uclibc/lib/gcc/arm-linux-uclibcgnueabi/4.1.1/libgcc.a(_udivsi3.o)
 .debug_info    0x00000197      0x106 /opt/RidgeRun/arm-eabi-uclibc/lib/gcc/arm-linux-uclibcgnueabi/4.1.1/libgcc.a(_divsi3.o)
 .debug_info    0x0000029d      0x105 /opt/RidgeRun/arm-eabi-uclibc/lib/gcc/arm-linux-uclibcgnueabi/4.1.1/libgcc.a(_addsubdf3.o)
 .debug_info    0x000003a2      0x105 /opt/RidgeRun/arm-eabi-uclibc/lib/gcc/arm-linux-uclibcgnueabi/4.1.1/libgcc.a(_muldivdf3.o)
 .debug_info    0x000004a7      0x105 /opt/RidgeRun/arm-eabi-uclibc/lib/gcc/arm-linux-uclibcgnueabi/4.1.1/libgcc.a(_cmpdf2.o)
 .debug_info    0x000005ac      0x105 /opt/RidgeRun/arm-eabi-uclibc/lib/gcc/arm-linux-uclibcgnueabi/4.1.1/libgcc.a(_fixdfsi.o)
 .debug_info    0x000006b1      0x105 /opt/RidgeRun/arm-eabi-uclibc/lib/gcc/arm-linux-uclibcgnueabi/4.1.1/libgcc.a(_fixunsdfsi.o)
 .debug_info    0x000007b6      0x105 /opt/RidgeRun/arm-eabi-uclibc/lib/gcc/arm-linux-uclibcgnueabi/4.1.1/libgcc.a(_addsubsf3.o)
 .debug_info    0x000008bb      0x105 /opt/RidgeRun/arm-eabi-uclibc/lib/gcc/arm-linux-uclibcgnueabi/4.1.1/libgcc.a(_muldivsf3.o)
 .debug_info    0x000009c0      0x100 /opt/RidgeRun/arm-eabi-uclibc/lib/gcc/arm-linux-uclibcgnueabi/4.1.1/libgcc.a(_aeabi_ldivmod.o)
 .debug_info    0x00000ac0      0x100 /opt/RidgeRun/arm-eabi-uclibc/lib/gcc/arm-linux-uclibcgnueabi/4.1.1/libgcc.a(_aeabi_uldivmod.o)
 .debug_info    0x00000bc0      0x106 /opt/RidgeRun/arm-eabi-uclibc/lib/gcc/arm-linux-uclibcgnueabi/4.1.1/libgcc.a(_dvmd_lnx.o)
 .debug_info    0x00000cc6       0xe6 /opt/RidgeRun/arm-eabi-uclibc/lib/gcc/arm-linux-uclibcgnueabi/4.1.1/libgcc.a(bpabi.o)
 .debug_info    0x00000dac      0x6cc /opt/RidgeRun/arm-eabi-uclibc/lib/gcc/arm-linux-uclibcgnueabi/4.1.1/libgcc.a(_divdi3.o)
 .debug_info    0x00001478      0x68c /opt/RidgeRun/arm-eabi-uclibc/lib/gcc/arm-linux-uclibcgnueabi/4.1.1/libgcc.a(_udivdi3.o)
 .debug_info    0x00001b04       0xbb /opt/RidgeRun/arm-eabi-uclibc/lib/gcc/arm-linux-uclibcgnueabi/4.1.1/libgcc.a(_clz.o)
 .debug_info    0x00001bbf      0xf9b /opt/RidgeRun/arm-eabi-uclibc/lib/gcc/arm-linux-uclibcgnueabi/4.1.1/libgcc_eh.a(unwind-arm.o)
 .debug_info    0x00002b5a      0x104 /opt/RidgeRun/arm-eabi-uclibc/lib/gcc/arm-linux-uclibcgnueabi/4.1.1/libgcc_eh.a(libunwind.o)
 .debug_info    0x00002c5e      0x515 /opt/RidgeRun/arm-eabi-uclibc/lib/gcc/arm-linux-uclibcgnueabi/4.1.1/libgcc_eh.a(pr-support.o)
 .debug_info    0x00003173      0x105 /opt/RidgeRun/arm-eabi-uclibc/lib/gcc/arm-linux-uclibcgnueabi/4.1.1/libgcc.a(_truncdfsf2.o)
 .debug_info    0x00003278       0x91 /opt/RidgeRun/arm-eabi-uclibc/lib/gcc/arm-linux-uclibcgnueabi/4.1.1/../../../../arm-linux-uclibcgnueabi/lib/crtn.o

.debug_abbrev   0x00000000      0xae2
 *(.debug_abbrev)
 .debug_abbrev  0x00000000       0x10 /opt/RidgeRun/arm-eabi-uclibc/lib/gcc/arm-linux-uclibcgnueabi/4.1.1/../../../../arm-linux-uclibcgnueabi/lib/crti.o
 .debug_abbrev  0x00000010       0x14 /opt/RidgeRun/arm-eabi-uclibc/lib/gcc/arm-linux-uclibcgnueabi/4.1.1/libgcc.a(_udivsi3.o)
 .debug_abbrev  0x00000024       0x14 /opt/RidgeRun/arm-eabi-uclibc/lib/gcc/arm-linux-uclibcgnueabi/4.1.1/libgcc.a(_divsi3.o)
 .debug_abbrev  0x00000038       0x14 /opt/RidgeRun/arm-eabi-uclibc/lib/gcc/arm-linux-uclibcgnueabi/4.1.1/libgcc.a(_addsubdf3.o)
 .debug_abbrev  0x0000004c       0x14 /opt/RidgeRun/arm-eabi-uclibc/lib/gcc/arm-linux-uclibcgnueabi/4.1.1/libgcc.a(_muldivdf3.o)
 .debug_abbrev  0x00000060       0x14 /opt/RidgeRun/arm-eabi-uclibc/lib/gcc/arm-linux-uclibcgnueabi/4.1.1/libgcc.a(_cmpdf2.o)
 .debug_abbrev  0x00000074       0x14 /opt/RidgeRun/arm-eabi-uclibc/lib/gcc/arm-linux-uclibcgnueabi/4.1.1/libgcc.a(_fixdfsi.o)
 .debug_abbrev  0x00000088       0x14 /opt/RidgeRun/arm-eabi-uclibc/lib/gcc/arm-linux-uclibcgnueabi/4.1.1/libgcc.a(_fixunsdfsi.o)
 .debug_abbrev  0x0000009c       0x14 /opt/RidgeRun/arm-eabi-uclibc/lib/gcc/arm-linux-uclibcgnueabi/4.1.1/libgcc.a(_addsubsf3.o)
 .debug_abbrev  0x000000b0       0x14 /opt/RidgeRun/arm-eabi-uclibc/lib/gcc/arm-linux-uclibcgnueabi/4.1.1/libgcc.a(_muldivsf3.o)
 .debug_abbrev  0x000000c4       0x14 /opt/RidgeRun/arm-eabi-uclibc/lib/gcc/arm-linux-uclibcgnueabi/4.1.1/libgcc.a(_aeabi_ldivmod.o)
 .debug_abbrev  0x000000d8       0x14 /opt/RidgeRun/arm-eabi-uclibc/lib/gcc/arm-linux-uclibcgnueabi/4.1.1/libgcc.a(_aeabi_uldivmod.o)
 .debug_abbrev  0x000000ec       0x14 /opt/RidgeRun/arm-eabi-uclibc/lib/gcc/arm-linux-uclibcgnueabi/4.1.1/libgcc.a(_dvmd_lnx.o)
 .debug_abbrev  0x00000100       0x6c /opt/RidgeRun/arm-eabi-uclibc/lib/gcc/arm-linux-uclibcgnueabi/4.1.1/libgcc.a(bpabi.o)
 .debug_abbrev  0x0000016c      0x194 /opt/RidgeRun/arm-eabi-uclibc/lib/gcc/arm-linux-uclibcgnueabi/4.1.1/libgcc.a(_divdi3.o)
 .debug_abbrev  0x00000300      0x178 /opt/RidgeRun/arm-eabi-uclibc/lib/gcc/arm-linux-uclibcgnueabi/4.1.1/libgcc.a(_udivdi3.o)
 .debug_abbrev  0x00000478       0x61 /opt/RidgeRun/arm-eabi-uclibc/lib/gcc/arm-linux-uclibcgnueabi/4.1.1/libgcc.a(_clz.o)
 .debug_abbrev  0x000004d9      0x3a3 /opt/RidgeRun/arm-eabi-uclibc/lib/gcc/arm-linux-uclibcgnueabi/4.1.1/libgcc_eh.a(unwind-arm.o)
 .debug_abbrev  0x0000087c       0x14 /opt/RidgeRun/arm-eabi-uclibc/lib/gcc/arm-linux-uclibcgnueabi/4.1.1/libgcc_eh.a(libunwind.o)
 .debug_abbrev  0x00000890      0x22e /opt/RidgeRun/arm-eabi-uclibc/lib/gcc/arm-linux-uclibcgnueabi/4.1.1/libgcc_eh.a(pr-support.o)
 .debug_abbrev  0x00000abe       0x14 /opt/RidgeRun/arm-eabi-uclibc/lib/gcc/arm-linux-uclibcgnueabi/4.1.1/libgcc.a(_truncdfsf2.o)
 .debug_abbrev  0x00000ad2       0x10 /opt/RidgeRun/arm-eabi-uclibc/lib/gcc/arm-linux-uclibcgnueabi/4.1.1/../../../../arm-linux-uclibcgnueabi/lib/crtn.o

.debug_line     0x00000000     0x181b
 *(.debug_line)
 .debug_line    0x00000000       0x49 /opt/RidgeRun/arm-eabi-uclibc/lib/gcc/arm-linux-uclibcgnueabi/4.1.1/../../../../arm-linux-uclibcgnueabi/lib/crti.o
 .debug_line    0x00000049       0xcf /opt/RidgeRun/arm-eabi-uclibc/lib/gcc/arm-linux-uclibcgnueabi/4.1.1/libgcc.a(_udivsi3.o)
 .debug_line    0x00000118       0xdb /opt/RidgeRun/arm-eabi-uclibc/lib/gcc/arm-linux-uclibcgnueabi/4.1.1/libgcc.a(_divsi3.o)
 .debug_line    0x000001f3      0x223 /opt/RidgeRun/arm-eabi-uclibc/lib/gcc/arm-linux-uclibcgnueabi/4.1.1/libgcc.a(_addsubdf3.o)
 .debug_line    0x00000416      0x244 /opt/RidgeRun/arm-eabi-uclibc/lib/gcc/arm-linux-uclibcgnueabi/4.1.1/libgcc.a(_muldivdf3.o)
 .debug_line    0x0000065a      0x13a /opt/RidgeRun/arm-eabi-uclibc/lib/gcc/arm-linux-uclibcgnueabi/4.1.1/libgcc.a(_cmpdf2.o)
 .debug_line    0x00000794       0xbd /opt/RidgeRun/arm-eabi-uclibc/lib/gcc/arm-linux-uclibcgnueabi/4.1.1/libgcc.a(_fixdfsi.o)
 .debug_line    0x00000851       0xbb /opt/RidgeRun/arm-eabi-uclibc/lib/gcc/arm-linux-uclibcgnueabi/4.1.1/libgcc.a(_fixunsdfsi.o)
 .debug_line    0x0000090c      0x147 /opt/RidgeRun/arm-eabi-uclibc/lib/gcc/arm-linux-uclibcgnueabi/4.1.1/libgcc.a(_addsubsf3.o)
 .debug_line    0x00000a53      0x168 /opt/RidgeRun/arm-eabi-uclibc/lib/gcc/arm-linux-uclibcgnueabi/4.1.1/libgcc.a(_muldivsf3.o)
 .debug_line    0x00000bbb       0xa8 /opt/RidgeRun/arm-eabi-uclibc/lib/gcc/arm-linux-uclibcgnueabi/4.1.1/libgcc.a(_aeabi_ldivmod.o)
 .debug_line    0x00000c63       0xa8 /opt/RidgeRun/arm-eabi-uclibc/lib/gcc/arm-linux-uclibcgnueabi/4.1.1/libgcc.a(_aeabi_uldivmod.o)
 .debug_line    0x00000d0b       0xae /opt/RidgeRun/arm-eabi-uclibc/lib/gcc/arm-linux-uclibcgnueabi/4.1.1/libgcc.a(_dvmd_lnx.o)
 .debug_line    0x00000db9       0xae /opt/RidgeRun/arm-eabi-uclibc/lib/gcc/arm-linux-uclibcgnueabi/4.1.1/libgcc.a(bpabi.o)
 .debug_line    0x00000e67      0x12e /opt/RidgeRun/arm-eabi-uclibc/lib/gcc/arm-linux-uclibcgnueabi/4.1.1/libgcc.a(_divdi3.o)
 .debug_line    0x00000f95      0x122 /opt/RidgeRun/arm-eabi-uclibc/lib/gcc/arm-linux-uclibcgnueabi/4.1.1/libgcc.a(_udivdi3.o)
 .debug_line    0x000010b7       0x96 /opt/RidgeRun/arm-eabi-uclibc/lib/gcc/arm-linux-uclibcgnueabi/4.1.1/libgcc.a(_clz.o)
 .debug_line    0x0000114d      0x330 /opt/RidgeRun/arm-eabi-uclibc/lib/gcc/arm-linux-uclibcgnueabi/4.1.1/libgcc_eh.a(unwind-arm.o)
 .debug_line    0x0000147d       0xb9 /opt/RidgeRun/arm-eabi-uclibc/lib/gcc/arm-linux-uclibcgnueabi/4.1.1/libgcc_eh.a(libunwind.o)
 .debug_line    0x00001536      0x1d0 /opt/RidgeRun/arm-eabi-uclibc/lib/gcc/arm-linux-uclibcgnueabi/4.1.1/libgcc_eh.a(pr-support.o)
 .debug_line    0x00001706       0xce /opt/RidgeRun/arm-eabi-uclibc/lib/gcc/arm-linux-uclibcgnueabi/4.1.1/libgcc.a(_truncdfsf2.o)
 .debug_line    0x000017d4       0x47 /opt/RidgeRun/arm-eabi-uclibc/lib/gcc/arm-linux-uclibcgnueabi/4.1.1/../../../../arm-linux-uclibcgnueabi/lib/crtn.o

.debug_frame    0x00000000      0x3f0
 *(.debug_frame)
 .debug_frame   0x00000000       0x28 /opt/RidgeRun/arm-eabi-uclibc/lib/gcc/arm-linux-uclibcgnueabi/4.1.1/libgcc.a(_udivsi3.o)
 .debug_frame   0x00000028       0x28 /opt/RidgeRun/arm-eabi-uclibc/lib/gcc/arm-linux-uclibcgnueabi/4.1.1/libgcc.a(_divsi3.o)
 .debug_frame   0x00000050       0x58 /opt/RidgeRun/arm-eabi-uclibc/lib/gcc/arm-linux-uclibcgnueabi/4.1.1/libgcc.a(bpabi.o)
 .debug_frame   0x000000a8       0x38 /opt/RidgeRun/arm-eabi-uclibc/lib/gcc/arm-linux-uclibcgnueabi/4.1.1/libgcc.a(_divdi3.o)
 .debug_frame   0x000000e0       0x38 /opt/RidgeRun/arm-eabi-uclibc/lib/gcc/arm-linux-uclibcgnueabi/4.1.1/libgcc.a(_udivdi3.o)
 .debug_frame   0x00000118      0x234 /opt/RidgeRun/arm-eabi-uclibc/lib/gcc/arm-linux-uclibcgnueabi/4.1.1/libgcc_eh.a(unwind-arm.o)
 .debug_frame   0x0000034c       0xa4 /opt/RidgeRun/arm-eabi-uclibc/lib/gcc/arm-linux-uclibcgnueabi/4.1.1/libgcc_eh.a(pr-support.o)

.debug_str      0x00000000      0xb2d
 *(.debug_str)
 .debug_str     0x00000000       0xe1 /opt/RidgeRun/arm-eabi-uclibc/lib/gcc/arm-linux-uclibcgnueabi/4.1.1/libgcc.a(bpabi.o)
 .debug_str     0x000000e1      0x1a0 /opt/RidgeRun/arm-eabi-uclibc/lib/gcc/arm-linux-uclibcgnueabi/4.1.1/libgcc.a(_divdi3.o)
                                0x217 (size before relaxing)
 .debug_str     0x00000281        0xa /opt/RidgeRun/arm-eabi-uclibc/lib/gcc/arm-linux-uclibcgnueabi/4.1.1/libgcc.a(_udivdi3.o)
                                0x20e (size before relaxing)
 .debug_str     0x0000028b        0x0 /opt/RidgeRun/arm-eabi-uclibc/lib/gcc/arm-linux-uclibcgnueabi/4.1.1/libgcc.a(_clz.o)
                                0x191 (size before relaxing)
 .debug_str     0x0000028b      0x796 /opt/RidgeRun/arm-eabi-uclibc/lib/gcc/arm-linux-uclibcgnueabi/4.1.1/libgcc_eh.a(unwind-arm.o)
                                0x822 (size before relaxing)
 .debug_str     0x00000a21      0x10c /opt/RidgeRun/arm-eabi-uclibc/lib/gcc/arm-linux-uclibcgnueabi/4.1.1/libgcc_eh.a(pr-support.o)
                                0x35a (size before relaxing)

.debug_loc      0x00000000     0x2233
 *(.debug_loc)
 .debug_loc     0x00000000      0x13e /opt/RidgeRun/arm-eabi-uclibc/lib/gcc/arm-linux-uclibcgnueabi/4.1.1/libgcc.a(bpabi.o)
 .debug_loc     0x0000013e      0x8c5 /opt/RidgeRun/arm-eabi-uclibc/lib/gcc/arm-linux-uclibcgnueabi/4.1.1/libgcc.a(_divdi3.o)
 .debug_loc     0x00000a03      0x7f7 /opt/RidgeRun/arm-eabi-uclibc/lib/gcc/arm-linux-uclibcgnueabi/4.1.1/libgcc.a(_udivdi3.o)
 .debug_loc     0x000011fa      0xcd5 /opt/RidgeRun/arm-eabi-uclibc/lib/gcc/arm-linux-uclibcgnueabi/4.1.1/libgcc_eh.a(unwind-arm.o)
 .debug_loc     0x00001ecf      0x364 /opt/RidgeRun/arm-eabi-uclibc/lib/gcc/arm-linux-uclibcgnueabi/4.1.1/libgcc_eh.a(pr-support.o)

.debug_macinfo
 *(.debug_macinfo)

.debug_weaknames
 *(.debug_weaknames)

.debug_funcnames
 *(.debug_funcnames)

.debug_typenames
 *(.debug_typenames)

.debug_varnames
 *(.debug_varnames)

.note.gnu.arm.ident
 *(.note.gnu.arm.ident)

/DISCARD/
 *(.note.GNU-stack)
OUTPUT(fceu elf32-littlearm)

.ARM.attributes
                0x00000000       0x10
 .ARM.attributes
                0x00000000       0x14 /opt/RidgeRun/arm-eabi-uclibc/lib/gcc/arm-linux-uclibcgnueabi/4.1.1/../../../../arm-linux-uclibcgnueabi/lib/crt1.o
 .ARM.attributes
                0x00000014       0x14 /opt/RidgeRun/arm-eabi-uclibc/lib/gcc/arm-linux-uclibcgnueabi/4.1.1/../../../../arm-linux-uclibcgnueabi/lib/crti.o
 .ARM.attributes
                0x00000028       0x14 /opt/RidgeRun/arm-eabi-uclibc/lib/gcc/arm-linux-uclibcgnueabi/4.1.1/crtbeginT.o
 .ARM.attributes
                0x0000003c       0x1d fce.o
 .ARM.attributes
                0x00000059       0x1d video.o
 .ARM.attributes
                0x00000076       0x1d general.o
 .ARM.attributes
                0x00000093       0x1d endian.o
 .ARM.attributes
                0x000000b0       0x1d svga.o
 .ARM.attributes
                0x000000cd       0x1d sound.o
 .ARM.attributes
                0x000000ea       0x1d nsf.o
 .ARM.attributes
                0x00000107       0x1d fds.o
 .ARM.attributes
                0x00000124       0x1b netplay.o
 .ARM.attributes
                0x0000013f       0x1d ines.o
 .ARM.attributes
                0x0000015c       0x1d state.o
 .ARM.attributes
                0x00000179       0x1d unif.o
 .ARM.attributes
                0x00000196       0x1d input.o
 .ARM.attributes
                0x000001b3       0x1d file.o
 .ARM.attributes
                0x000001d0       0x1d cart.o
 .ARM.attributes
                0x000001ed       0x1b crc32.o
 .ARM.attributes
                0x00000208       0x1d memory.o
 .ARM.attributes
                0x00000225       0x1d cheat.o
 .ARM.attributes
                0x00000242       0x1d debug.o
 .ARM.attributes
                0x0000025f       0x1d md5.o
 .ARM.attributes
                0x0000027c       0x1d vsuni.o
 .ARM.attributes
                0x00000299       0x1d palette.o
 .ARM.attributes
                0x000002b6       0x1d mappers/113.o
 .ARM.attributes
                0x000002d3       0x1d mappers/15.o
 .ARM.attributes
                0x000002f0       0x1d mappers/151.o
 .ARM.attributes
                0x0000030d       0x1d mappers/16.o
 .ARM.attributes
                0x0000032a       0x1d mappers/17.o
 .ARM.attributes
                0x00000347       0x1d mappers/18.o
 .ARM.attributes
                0x00000364       0x1d mappers/180.o
 .ARM.attributes
                0x00000381       0x1b mappers/183.o
 .ARM.attributes
                0x0000039c       0x1d mappers/184.o
 .ARM.attributes
                0x000003b9       0x1d mappers/193.o
 .ARM.attributes
                0x000003d6       0x1d mappers/200.o
 .ARM.attributes
                0x000003f3       0x1d mappers/201.o
 .ARM.attributes
                0x00000410       0x1d mappers/202.o
 .ARM.attributes
                0x0000042d       0x1d mappers/203.o
 .ARM.attributes
                0x0000044a       0x1d mappers/204.o
 .ARM.attributes
                0x00000467       0x1d mappers/21.o
 .ARM.attributes
                0x00000484       0x1d mappers/212.o
 .ARM.attributes
                0x000004a1       0x1d mappers/213.o
 .ARM.attributes
                0x000004be       0x1d mappers/214.o
 .ARM.attributes
                0x000004db       0x1b mappers/215.o
 .ARM.attributes
                0x000004f6       0x1b mappers/217.o
 .ARM.attributes
                0x00000511       0x1d mappers/22.o
 .ARM.attributes
                0x0000052e       0x1d mappers/225.o
 .ARM.attributes
                0x0000054b       0x1d mappers/226.o
 .ARM.attributes
                0x00000568       0x1d mappers/227.o
 .ARM.attributes
                0x00000585       0x1d mappers/228.o
 .ARM.attributes
                0x000005a2       0x1d mappers/229.o
 .ARM.attributes
                0x000005bf       0x1d mappers/23.o
 .ARM.attributes
                0x000005dc       0x1d mappers/230.o
 .ARM.attributes
                0x000005f9       0x1d mappers/231.o
 .ARM.attributes
                0x00000616       0x1d mappers/232.o
 .ARM.attributes
                0x00000633       0x1d mappers/234.o
 .ARM.attributes
                0x00000650       0x1d mappers/240.o
 .ARM.attributes
                0x0000066d       0x1d mappers/241.o
 .ARM.attributes
                0x0000068a       0x1d mappers/242.o
 .ARM.attributes
                0x000006a7       0x1d mappers/244.o
 .ARM.attributes
                0x000006c4       0x1d mappers/246.o
 .ARM.attributes
                0x000006e1       0x1d mappers/24and26.o
 .ARM.attributes
                0x000006fe       0x1d mappers/25.o
 .ARM.attributes
                0x0000071b       0x1d mappers/255.o
 .ARM.attributes
                0x00000738       0x1d mappers/27.o
 .ARM.attributes
                0x00000755       0x1d mappers/32.o
 .ARM.attributes
                0x00000772       0x1d mappers/33.o
 .ARM.attributes
                0x0000078f       0x1d mappers/40.o
 .ARM.attributes
                0x000007ac       0x1d mappers/41.o
 .ARM.attributes
                0x000007c9       0x1d mappers/42.o
 .ARM.attributes
                0x000007e6       0x1d mappers/43.o
 .ARM.attributes
                0x00000803       0x1d mappers/46.o
 .ARM.attributes
                0x00000820       0x1d mappers/50.o
 .ARM.attributes
                0x0000083d       0x1d mappers/51.o
 .ARM.attributes
                0x0000085a       0x1d mappers/59.o
 .ARM.attributes
                0x00000877       0x1d mappers/6.o
 .ARM.attributes
                0x00000894       0x1d mappers/60.o
 .ARM.attributes
                0x000008b1       0x1d mappers/61.o
 .ARM.attributes
                0x000008ce       0x1d mappers/62.o
 .ARM.attributes
                0x000008eb       0x1d mappers/65.o
 .ARM.attributes
                0x00000908       0x1d mappers/67.o
 .ARM.attributes
                0x00000925       0x1d mappers/68.o
 .ARM.attributes
                0x00000942       0x1d mappers/69.o
 .ARM.attributes
                0x0000095f       0x1d mappers/71.o
 .ARM.attributes
                0x0000097c       0x1d mappers/72.o
 .ARM.attributes
                0x00000999       0x1d mappers/73.o
 .ARM.attributes
                0x000009b6       0x1d mappers/75.o
 .ARM.attributes
                0x000009d3       0x1d mappers/76.o
 .ARM.attributes
                0x000009f0       0x1d mappers/77.o
 .ARM.attributes
                0x00000a0d       0x1d mappers/79.o
 .ARM.attributes
                0x00000a2a       0x1d mappers/8.o
 .ARM.attributes
                0x00000a47       0x1d mappers/80.o
 .ARM.attributes
                0x00000a64       0x1d mappers/82.o
 .ARM.attributes
                0x00000a81       0x1d mappers/83.o
 .ARM.attributes
                0x00000a9e       0x1d mappers/85.o
 .ARM.attributes
                0x00000abb       0x1d mappers/86.o
 .ARM.attributes
                0x00000ad8       0x1d mappers/89.o
 .ARM.attributes
                0x00000af5       0x1d mappers/91.o
 .ARM.attributes
                0x00000b12       0x1d mappers/92.o
 .ARM.attributes
                0x00000b2f       0x1d mappers/97.o
 .ARM.attributes
                0x00000b4c       0x1d mappers/99.o
 .ARM.attributes
                0x00000b69       0x1d mappers/emu2413.o
 .ARM.attributes
                0x00000b86       0x1d mappers/mmc2and4.o
 .ARM.attributes
                0x00000ba3       0x1d mappers/simple.o
 .ARM.attributes
                0x00000bc0       0x1d boards/112.o
 .ARM.attributes
                0x00000bdd       0x1d boards/117.o
 .ARM.attributes
                0x00000bfa       0x1d boards/164.o
 .ARM.attributes
                0x00000c17       0x1d boards/183.o
 .ARM.attributes
                0x00000c34       0x1d boards/185.o
 .ARM.attributes
                0x00000c51       0x1d boards/186.o
 .ARM.attributes
                0x00000c6e       0x1d boards/187.o
 .ARM.attributes
                0x00000c8b       0x1d boards/189.o
 .ARM.attributes
                0x00000ca8       0x1d boards/208.o
 .ARM.attributes
                0x00000cc5       0x1d boards/222.o
 .ARM.attributes
                0x00000ce2       0x1d boards/235.o
 .ARM.attributes
                0x00000cff       0x1d boards/57.o
 .ARM.attributes
                0x00000d1c       0x1d boards/8157.o
 .ARM.attributes
                0x00000d39       0x1d boards/8237.o
 .ARM.attributes
                0x00000d56       0x1d boards/88.o
 .ARM.attributes
                0x00000d73       0x1d boards/90.o
 .ARM.attributes
                0x00000d90       0x1d boards/95.o
 .ARM.attributes
                0x00000dad       0x1d boards/bmc13in1jy110.o
 .ARM.attributes
                0x00000dca       0x1d boards/bmc42in1r.o
 .ARM.attributes
                0x00000de7       0x1d boards/bmc64in1nr.o
 .ARM.attributes
                0x00000e04       0x1d boards/bmc70in1.o
 .ARM.attributes
                0x00000e21       0x1d boards/bmcgk192.o
 .ARM.attributes
                0x00000e3e       0x1d boards/bonza.o
 .ARM.attributes
                0x00000e5b       0x1d boards/cc21.o
 .ARM.attributes
                0x00000e78       0x1d boards/datalatch.o
 .ARM.attributes
                0x00000e95       0x1d boards/deirom.o
 .ARM.attributes
                0x00000eb2       0x1d boards/dream.o
 .ARM.attributes
                0x00000ecf       0x1d boards/fk23c.o
 .ARM.attributes
                0x00000eec       0x1d boards/h2288.o
 .ARM.attributes
                0x00000f09       0x1d boards/karaoke.o
 .ARM.attributes
                0x00000f26       0x1d boards/kof97.o
 .ARM.attributes
                0x00000f43       0x1d boards/konami-qtai.o
 .ARM.attributes
                0x00000f60       0x1d boards/malee.o
 .ARM.attributes
                0x00000f7d       0x1d boards/mmc1.o
 .ARM.attributes
                0x00000f9a       0x1d boards/mmc3.o
 .ARM.attributes
                0x00000fb7       0x1d boards/mmc5.o
 .ARM.attributes
                0x00000fd4       0x1d boards/n106.o
 .ARM.attributes
                0x00000ff1       0x1d boards/novel.o
 .ARM.attributes
                0x0000100e       0x1d boards/sachen.o
 .ARM.attributes
                0x0000102b       0x1d boards/sheroes.o
 .ARM.attributes
                0x00001048       0x1d boards/sl1632.o
 .ARM.attributes
                0x00001065       0x1d boards/sonic5.o
 .ARM.attributes
                0x00001082       0x1d boards/subor.o
 .ARM.attributes
                0x0000109f       0x1d boards/super24.o
 .ARM.attributes
                0x000010bc       0x1d boards/supervision.o
 .ARM.attributes
                0x000010d9       0x1d boards/t-262.o
 .ARM.attributes
                0x000010f6       0x1d boards/tengen.o
 .ARM.attributes
                0x00001113       0x1d boards/__dummy_mapper.o
 .ARM.attributes
                0x00001130       0x1d input/cursor.o
 .ARM.attributes
                0x0000114d       0x1d input/zapper.o
 .ARM.attributes
                0x0000116a       0x1d input/powerpad.o
 .ARM.attributes
                0x00001187       0x1d input/arkanoid.o
 .ARM.attributes
                0x000011a4       0x1d input/shadow.o
 .ARM.attributes
                0x000011c1       0x1d input/fkb.o
 .ARM.attributes
                0x000011de       0x1d input/hypershot.o
 .ARM.attributes
                0x000011fb       0x1d input/mahjong.o
 .ARM.attributes
                0x00001218       0x1d input/oekakids.o
 .ARM.attributes
                0x00001235       0x1d input/ftrainer.o
 .ARM.attributes
                0x00001252       0x1d input/quiz.o
 .ARM.attributes
                0x0000126f       0x1d input/toprider.o
 .ARM.attributes
                0x0000128c       0x1d input/bworld.o
 .ARM.attributes
                0x000012a9       0x1d input/suborkb.o
 .ARM.attributes
                0x000012c6       0x1d drivers/LF1000/minimal.o
 .ARM.attributes
                0x000012e3       0x1d drivers/LF1000/cpuctrl.o
 .ARM.attributes
                0x00001300       0x1d drivers/LF1000/squidgehack.o
 .ARM.attributes
                0x0000131d       0x1d drivers/LF1000/asmutils.o
 .ARM.attributes
                0x0000133a       0x1d drivers/LF1000/gp2x.o
 .ARM.attributes
                0x00001357       0x1d drivers/LF1000/main.o
 .ARM.attributes
                0x00001374       0x1d drivers/LF1000/throttle.o
 .ARM.attributes
                0x00001391       0x1d drivers/LF1000/unix-netplay.o
 .ARM.attributes
                0x000013ae       0x1d drivers/LF1000/gp2x-sound.o
 .ARM.attributes
                0x000013cb       0x1d drivers/LF1000/gp2x-video.o
 .ARM.attributes
                0x000013e8       0x1d drivers/LF1000/usbjoy.o
 .ARM.attributes
                0x00001405       0x1d drivers/LF1000/menu.o
 .ARM.attributes
                0x00001422       0x1b drivers/LF1000/fonts.o
 .ARM.attributes
                0x0000143d       0x1d drivers/LF1000/readpng.o
 .ARM.attributes
                0x0000145a       0x1d drivers/common/cheat.o
 .ARM.attributes
                0x00001477       0x1d drivers/common/config.o
 .ARM.attributes
                0x00001494       0x1d drivers/common/args.o
 .ARM.attributes
                0x000014b1       0x1d drivers/common/vidblit.o
 .ARM.attributes
                0x000014ce       0x1d zlib/unzip.o
 .ARM.attributes
                0x000014eb       0x1d ppu.o
 .ARM.attributes
                0x00001508       0x1d movie.o
 .ARM.attributes
                0x00001525       0x1d fceu098.o
 .ARM.attributes
                0x00001542       0x1d ppu098.o
 .ARM.attributes
                0x0000155f       0x1d ncpu.o
 .ARM.attributes
                0x0000157c       0x14 /opt/RidgeRun/arm-eabi-uclibc/lib/gcc/arm-linux-uclibcgnueabi/4.1.1/../../../../arm-linux-uclibcgnueabi/lib/libm.a(s_atan.o)
 .ARM.attributes
                0x00001590       0x14 /opt/RidgeRun/arm-eabi-uclibc/lib/gcc/arm-linux-uclibcgnueabi/4.1.1/../../../../arm-linux-uclibcgnueabi/lib/libm.a(s_cos.o)
 .ARM.attributes
                0x000015a4       0x14 /opt/RidgeRun/arm-eabi-uclibc/lib/gcc/arm-linux-uclibcgnueabi/4.1.1/../../../../arm-linux-uclibcgnueabi/lib/libm.a(s_fabs.o)
 .ARM.attributes
                0x000015b8       0x14 /opt/RidgeRun/arm-eabi-uclibc/lib/gcc/arm-linux-uclibcgnueabi/4.1.1/../../../../arm-linux-uclibcgnueabi/lib/libm.a(s_sin.o)
 .ARM.attributes
                0x000015cc       0x14 /opt/RidgeRun/arm-eabi-uclibc/lib/gcc/arm-linux-uclibcgnueabi/4.1.1/../../../../arm-linux-uclibcgnueabi/lib/libm.a(w_log.o)
 .ARM.attributes
                0x000015e0       0x14 /opt/RidgeRun/arm-eabi-uclibc/lib/gcc/arm-linux-uclibcgnueabi/4.1.1/../../../../arm-linux-uclibcgnueabi/lib/libm.a(w_log10.o)
 .ARM.attributes
                0x000015f4       0x14 /opt/RidgeRun/arm-eabi-uclibc/lib/gcc/arm-linux-uclibcgnueabi/4.1.1/../../../../arm-linux-uclibcgnueabi/lib/libm.a(w_pow.o)
 .ARM.attributes
                0x00001608       0x14 /opt/RidgeRun/arm-eabi-uclibc/lib/gcc/arm-linux-uclibcgnueabi/4.1.1/../../../../arm-linux-uclibcgnueabi/lib/libm.a(w_sqrt.o)
 .ARM.attributes
                0x0000161c       0x14 /opt/RidgeRun/arm-eabi-uclibc/lib/gcc/arm-linux-uclibcgnueabi/4.1.1/../../../../arm-linux-uclibcgnueabi/lib/libm.a(e_log.o)
 .ARM.attributes
                0x00001630       0x14 /opt/RidgeRun/arm-eabi-uclibc/lib/gcc/arm-linux-uclibcgnueabi/4.1.1/../../../../arm-linux-uclibcgnueabi/lib/libm.a(e_log10.o)
 .ARM.attributes
                0x00001644       0x14 /opt/RidgeRun/arm-eabi-uclibc/lib/gcc/arm-linux-uclibcgnueabi/4.1.1/../../../../arm-linux-uclibcgnueabi/lib/libm.a(e_pow.o)
 .ARM.attributes
                0x00001658       0x14 /opt/RidgeRun/arm-eabi-uclibc/lib/gcc/arm-linux-uclibcgnueabi/4.1.1/../../../../arm-linux-uclibcgnueabi/lib/libm.a(e_rem_pio2.o)
 .ARM.attributes
                0x0000166c       0x14 /opt/RidgeRun/arm-eabi-uclibc/lib/gcc/arm-linux-uclibcgnueabi/4.1.1/../../../../arm-linux-uclibcgnueabi/lib/libm.a(e_sqrt.o)
 .ARM.attributes
                0x00001680       0x14 /opt/RidgeRun/arm-eabi-uclibc/lib/gcc/arm-linux-uclibcgnueabi/4.1.1/../../../../arm-linux-uclibcgnueabi/lib/libm.a(k_cos.o)
 .ARM.attributes
                0x00001694       0x14 /opt/RidgeRun/arm-eabi-uclibc/lib/gcc/arm-linux-uclibcgnueabi/4.1.1/../../../../arm-linux-uclibcgnueabi/lib/libm.a(k_rem_pio2.o)
 .ARM.attributes
                0x000016a8       0x14 /opt/RidgeRun/arm-eabi-uclibc/lib/gcc/arm-linux-uclibcgnueabi/4.1.1/../../../../arm-linux-uclibcgnueabi/lib/libm.a(k_sin.o)
 .ARM.attributes
                0x000016bc       0x14 /opt/RidgeRun/arm-eabi-uclibc/lib/gcc/arm-linux-uclibcgnueabi/4.1.1/../../../../arm-linux-uclibcgnueabi/lib/libm.a(s_floor.o)
 .ARM.attributes
                0x000016d0       0x14 /opt/RidgeRun/arm-eabi-uclibc/lib/gcc/arm-linux-uclibcgnueabi/4.1.1/../../../../arm-linux-uclibcgnueabi/lib/libm.a(s_scalbn.o)
 .ARM.attributes
                0x000016e4       0x14 /opt/RidgeRun/arm-eabi-uclibc/lib/gcc/arm-linux-uclibcgnueabi/4.1.1/../../../../arm-linux-uclibcgnueabi/lib/libm.a(s_copysign.o)
 .ARM.attributes
                0x000016f8       0x14 /home/joe/work/opendidj/rootfs//usr/lib/libz.a(compress.o)
 .ARM.attributes
                0x0000170c       0x14 /home/joe/work/opendidj/rootfs//usr/lib/libz.a(crc32.o)
 .ARM.attributes
                0x00001720       0x14 /home/joe/work/opendidj/rootfs//usr/lib/libz.a(deflate.o)
 .ARM.attributes
                0x00001734       0x14 /home/joe/work/opendidj/rootfs//usr/lib/libz.a(trees.o)
 .ARM.attributes
                0x00001748       0x14 /home/joe/work/opendidj/rootfs//usr/lib/libz.a(zutil.o)
 .ARM.attributes
                0x0000175c       0x14 /home/joe/work/opendidj/rootfs//usr/lib/libz.a(inflate.o)
 .ARM.attributes
                0x00001770       0x14 /home/joe/work/opendidj/rootfs//usr/lib/libz.a(inftrees.o)
 .ARM.attributes
                0x00001784       0x14 /home/joe/work/opendidj/rootfs//usr/lib/libz.a(inffast.o)
 .ARM.attributes
                0x00001798       0x14 /home/joe/work/opendidj/rootfs//usr/lib/libz.a(adler32.o)
 .ARM.attributes
                0x000017ac       0x20 /home/joe/work/opendidj/rootfs//usr/lib/libpng.a(libpng12_la-png.o)
 .ARM.attributes
                0x000017cc       0x20 /home/joe/work/opendidj/rootfs//usr/lib/libpng.a(libpng12_la-pngget.o)
 .ARM.attributes
                0x000017ec       0x20 /home/joe/work/opendidj/rootfs//usr/lib/libpng.a(libpng12_la-pngread.o)
 .ARM.attributes
                0x0000180c       0x20 /home/joe/work/opendidj/rootfs//usr/lib/libpng.a(libpng12_la-pngrio.o)
 .ARM.attributes
                0x0000182c       0x20 /home/joe/work/opendidj/rootfs//usr/lib/libpng.a(libpng12_la-pngrtran.o)
 .ARM.attributes
                0x0000184c       0x20 /home/joe/work/opendidj/rootfs//usr/lib/libpng.a(libpng12_la-pngmem.o)
 .ARM.attributes
                0x0000186c       0x20 /home/joe/work/opendidj/rootfs//usr/lib/libpng.a(libpng12_la-pngerror.o)
 .ARM.attributes
                0x0000188c       0x20 /home/joe/work/opendidj/rootfs//usr/lib/libpng.a(libpng12_la-pngrutil.o)
 .ARM.attributes
                0x000018ac       0x20 /home/joe/work/opendidj/rootfs//usr/lib/libpng.a(libpng12_la-pngtrans.o)
 .ARM.attributes
                0x000018cc       0x20 /home/joe/work/opendidj/rootfs//usr/lib/libpng.a(libpng12_la-pngset.o)
 .ARM.attributes
                0x000018ec       0x14 /opt/RidgeRun/arm-eabi-uclibc/lib/gcc/arm-linux-uclibcgnueabi/4.1.1/libgcc.a(_udivsi3.o)
 .ARM.attributes
                0x00001900       0x14 /opt/RidgeRun/arm-eabi-uclibc/lib/gcc/arm-linux-uclibcgnueabi/4.1.1/libgcc.a(_divsi3.o)
 .ARM.attributes
                0x00001914       0x14 /opt/RidgeRun/arm-eabi-uclibc/lib/gcc/arm-linux-uclibcgnueabi/4.1.1/libgcc.a(_addsubdf3.o)
 .ARM.attributes
                0x00001928       0x14 /opt/RidgeRun/arm-eabi-uclibc/lib/gcc/arm-linux-uclibcgnueabi/4.1.1/libgcc.a(_muldivdf3.o)
 .ARM.attributes
                0x0000193c       0x14 /opt/RidgeRun/arm-eabi-uclibc/lib/gcc/arm-linux-uclibcgnueabi/4.1.1/libgcc.a(_cmpdf2.o)
 .ARM.attributes
                0x00001950       0x14 /opt/RidgeRun/arm-eabi-uclibc/lib/gcc/arm-linux-uclibcgnueabi/4.1.1/libgcc.a(_fixdfsi.o)
 .ARM.attributes
                0x00001964       0x14 /opt/RidgeRun/arm-eabi-uclibc/lib/gcc/arm-linux-uclibcgnueabi/4.1.1/libgcc.a(_fixunsdfsi.o)
 .ARM.attributes
                0x00001978       0x14 /opt/RidgeRun/arm-eabi-uclibc/lib/gcc/arm-linux-uclibcgnueabi/4.1.1/libgcc.a(_addsubsf3.o)
 .ARM.attributes
                0x0000198c       0x14 /opt/RidgeRun/arm-eabi-uclibc/lib/gcc/arm-linux-uclibcgnueabi/4.1.1/libgcc.a(_muldivsf3.o)
 .ARM.attributes
                0x000019a0       0x14 /opt/RidgeRun/arm-eabi-uclibc/lib/gcc/arm-linux-uclibcgnueabi/4.1.1/libgcc.a(_aeabi_ldivmod.o)
 .ARM.attributes
                0x000019b4       0x14 /opt/RidgeRun/arm-eabi-uclibc/lib/gcc/arm-linux-uclibcgnueabi/4.1.1/libgcc.a(_aeabi_uldivmod.o)
 .ARM.attributes
                0x000019c8       0x14 /opt/RidgeRun/arm-eabi-uclibc/lib/gcc/arm-linux-uclibcgnueabi/4.1.1/libgcc.a(_dvmd_lnx.o)
 .ARM.attributes
                0x000019dc       0x14 /opt/RidgeRun/arm-eabi-uclibc/lib/gcc/arm-linux-uclibcgnueabi/4.1.1/libgcc.a(bpabi.o)
 .ARM.attributes
                0x000019f0       0x14 /opt/RidgeRun/arm-eabi-uclibc/lib/gcc/arm-linux-uclibcgnueabi/4.1.1/libgcc.a(_divdi3.o)
 .ARM.attributes
                0x00001a04       0x14 /opt/RidgeRun/arm-eabi-uclibc/lib/gcc/arm-linux-uclibcgnueabi/4.1.1/libgcc.a(_udivdi3.o)
 .ARM.attributes
                0x00001a18       0x10 /opt/RidgeRun/arm-eabi-uclibc/lib/gcc/arm-linux-uclibcgnueabi/4.1.1/libgcc.a(_clz.o)
 .ARM.attributes
                0x00001a28       0x14 /opt/RidgeRun/arm-eabi-uclibc/lib/gcc/arm-linux-uclibcgnueabi/4.1.1/libgcc_eh.a(unwind-arm.o)
 .ARM.attributes
                0x00001a3c       0x14 /opt/RidgeRun/arm-eabi-uclibc/lib/gcc/arm-linux-uclibcgnueabi/4.1.1/libgcc_eh.a(libunwind.o)
 .ARM.attributes
                0x00001a50       0x14 /opt/RidgeRun/arm-eabi-uclibc/lib/gcc/arm-linux-uclibcgnueabi/4.1.1/libgcc_eh.a(pr-support.o)
 .ARM.attributes
                0x00001a64       0x14 /opt/RidgeRun/arm-eabi-uclibc/lib/gcc/arm-linux-uclibcgnueabi/4.1.1/../../../../arm-linux-uclibcgnueabi/lib/libc.a(raise.o)
 .ARM.attributes
                0x00001a78       0x14 /opt/RidgeRun/arm-eabi-uclibc/lib/gcc/arm-linux-uclibcgnueabi/4.1.1/../../../../arm-linux-uclibcgnueabi/lib/libc.a(bsd-_setjmp.o)
 .ARM.attributes
                0x00001a8c       0x14 /opt/RidgeRun/arm-eabi-uclibc/lib/gcc/arm-linux-uclibcgnueabi/4.1.1/../../../../arm-linux-uclibcgnueabi/lib/libc.a(libc-aeabi_read_tp.o)
 .ARM.attributes
                0x00001aa0       0x14 /opt/RidgeRun/arm-eabi-uclibc/lib/gcc/arm-linux-uclibcgnueabi/4.1.1/../../../../arm-linux-uclibcgnueabi/lib/libc.a(__syscall_fcntl.o)
 .ARM.attributes
                0x00001ab4       0x14 /opt/RidgeRun/arm-eabi-uclibc/lib/gcc/arm-linux-uclibcgnueabi/4.1.1/../../../../arm-linux-uclibcgnueabi/lib/libc.a(__syscall_fcntl64.o)
 .ARM.attributes
                0x00001ac8       0x14 /opt/RidgeRun/arm-eabi-uclibc/lib/gcc/arm-linux-uclibcgnueabi/4.1.1/../../../../arm-linux-uclibcgnueabi/lib/libc.a(access.o)
 .ARM.attributes
                0x00001adc       0x14 /opt/RidgeRun/arm-eabi-uclibc/lib/gcc/arm-linux-uclibcgnueabi/4.1.1/../../../../arm-linux-uclibcgnueabi/lib/libc.a(chdir.o)
 .ARM.attributes
                0x00001af0       0x14 /opt/RidgeRun/arm-eabi-uclibc/lib/gcc/arm-linux-uclibcgnueabi/4.1.1/../../../../arm-linux-uclibcgnueabi/lib/libc.a(close.o)
 .ARM.attributes
                0x00001b04       0x14 /opt/RidgeRun/arm-eabi-uclibc/lib/gcc/arm-linux-uclibcgnueabi/4.1.1/../../../../arm-linux-uclibcgnueabi/lib/libc.a(getcwd.o)
 .ARM.attributes
                0x00001b18       0x14 /opt/RidgeRun/arm-eabi-uclibc/lib/gcc/arm-linux-uclibcgnueabi/4.1.1/../../../../arm-linux-uclibcgnueabi/lib/libc.a(getpagesize.o)
 .ARM.attributes
                0x00001b2c       0x14 /opt/RidgeRun/arm-eabi-uclibc/lib/gcc/arm-linux-uclibcgnueabi/4.1.1/../../../../arm-linux-uclibcgnueabi/lib/libc.a(gettimeofday.o)
 .ARM.attributes
                0x00001b40       0x14 /opt/RidgeRun/arm-eabi-uclibc/lib/gcc/arm-linux-uclibcgnueabi/4.1.1/../../../../arm-linux-uclibcgnueabi/lib/libc.a(ioctl.o)
 .ARM.attributes
                0x00001b54       0x14 /opt/RidgeRun/arm-eabi-uclibc/lib/gcc/arm-linux-uclibcgnueabi/4.1.1/../../../../arm-linux-uclibcgnueabi/lib/libc.a(longjmp.o)
 .ARM.attributes
                0x00001b68       0x14 /opt/RidgeRun/arm-eabi-uclibc/lib/gcc/arm-linux-uclibcgnueabi/4.1.1/../../../../arm-linux-uclibcgnueabi/lib/libc.a(mkdir.o)
 .ARM.attributes
                0x00001b7c       0x14 /opt/RidgeRun/arm-eabi-uclibc/lib/gcc/arm-linux-uclibcgnueabi/4.1.1/../../../../arm-linux-uclibcgnueabi/lib/libc.a(mmap.o)
 .ARM.attributes
                0x00001b90       0x14 /opt/RidgeRun/arm-eabi-uclibc/lib/gcc/arm-linux-uclibcgnueabi/4.1.1/../../../../arm-linux-uclibcgnueabi/lib/libc.a(munmap.o)
 .ARM.attributes
                0x00001ba4       0x14 /opt/RidgeRun/arm-eabi-uclibc/lib/gcc/arm-linux-uclibcgnueabi/4.1.1/../../../../arm-linux-uclibcgnueabi/lib/libc.a(open.o)
 .ARM.attributes
                0x00001bb8       0x14 /opt/RidgeRun/arm-eabi-uclibc/lib/gcc/arm-linux-uclibcgnueabi/4.1.1/../../../../arm-linux-uclibcgnueabi/lib/libc.a(read.o)
 .ARM.attributes
                0x00001bcc       0x14 /opt/RidgeRun/arm-eabi-uclibc/lib/gcc/arm-linux-uclibcgnueabi/4.1.1/../../../../arm-linux-uclibcgnueabi/lib/libc.a(sigprocmask.o)
 .ARM.attributes
                0x00001be0       0x14 /opt/RidgeRun/arm-eabi-uclibc/lib/gcc/arm-linux-uclibcgnueabi/4.1.1/../../../../arm-linux-uclibcgnueabi/lib/libc.a(stat.o)
 .ARM.attributes
                0x00001bf4       0x14 /opt/RidgeRun/arm-eabi-uclibc/lib/gcc/arm-linux-uclibcgnueabi/4.1.1/../../../../arm-linux-uclibcgnueabi/lib/libc.a(sync.o)
 .ARM.attributes
                0x00001c08       0x14 /opt/RidgeRun/arm-eabi-uclibc/lib/gcc/arm-linux-uclibcgnueabi/4.1.1/../../../../arm-linux-uclibcgnueabi/lib/libc.a(write.o)
 .ARM.attributes
                0x00001c1c       0x14 /opt/RidgeRun/arm-eabi-uclibc/lib/gcc/arm-linux-uclibcgnueabi/4.1.1/../../../../arm-linux-uclibcgnueabi/lib/libc.a(xstatconv.o)
 .ARM.attributes
                0x00001c30       0x10 /opt/RidgeRun/arm-eabi-uclibc/lib/gcc/arm-linux-uclibcgnueabi/4.1.1/../../../../arm-linux-uclibcgnueabi/lib/libc.a(__C_ctype_tolower.o)
 .ARM.attributes
                0x00001c40       0x10 /opt/RidgeRun/arm-eabi-uclibc/lib/gcc/arm-linux-uclibcgnueabi/4.1.1/../../../../arm-linux-uclibcgnueabi/lib/libc.a(__C_ctype_toupper.o)
 .ARM.attributes
                0x00001c50       0x14 /opt/RidgeRun/arm-eabi-uclibc/lib/gcc/arm-linux-uclibcgnueabi/4.1.1/../../../../arm-linux-uclibcgnueabi/lib/libc.a(alphasort.o)
 .ARM.attributes
                0x00001c64       0x14 /opt/RidgeRun/arm-eabi-uclibc/lib/gcc/arm-linux-uclibcgnueabi/4.1.1/../../../../arm-linux-uclibcgnueabi/lib/libc.a(closedir.o)
 .ARM.attributes
                0x00001c78       0x14 /opt/RidgeRun/arm-eabi-uclibc/lib/gcc/arm-linux-uclibcgnueabi/4.1.1/../../../../arm-linux-uclibcgnueabi/lib/libc.a(opendir.o)
 .ARM.attributes
                0x00001c8c       0x14 /opt/RidgeRun/arm-eabi-uclibc/lib/gcc/arm-linux-uclibcgnueabi/4.1.1/../../../../arm-linux-uclibcgnueabi/lib/libc.a(scandir.o)
 .ARM.attributes
                0x00001ca0       0x10 /opt/RidgeRun/arm-eabi-uclibc/lib/gcc/arm-linux-uclibcgnueabi/4.1.1/../../../../arm-linux-uclibcgnueabi/lib/libc.a(errno.o)
 .ARM.attributes
                0x00001cb0       0x14 /opt/RidgeRun/arm-eabi-uclibc/lib/gcc/arm-linux-uclibcgnueabi/4.1.1/../../../../arm-linux-uclibcgnueabi/lib/libc.a(fclose.o)
 .ARM.attributes
                0x00001cc4       0x14 /opt/RidgeRun/arm-eabi-uclibc/lib/gcc/arm-linux-uclibcgnueabi/4.1.1/../../../../arm-linux-uclibcgnueabi/lib/libc.a(fopen.o)
 .ARM.attributes
                0x00001cd8       0x14 /opt/RidgeRun/arm-eabi-uclibc/lib/gcc/arm-linux-uclibcgnueabi/4.1.1/../../../../arm-linux-uclibcgnueabi/lib/libc.a(fseeko.o)
 .ARM.attributes
                0x00001cec       0x14 /opt/RidgeRun/arm-eabi-uclibc/lib/gcc/arm-linux-uclibcgnueabi/4.1.1/../../../../arm-linux-uclibcgnueabi/lib/libc.a(ftello.o)
 .ARM.attributes
                0x00001d00       0x14 /opt/RidgeRun/arm-eabi-uclibc/lib/gcc/arm-linux-uclibcgnueabi/4.1.1/../../../../arm-linux-uclibcgnueabi/lib/libc.a(perror.o)
 .ARM.attributes
                0x00001d14       0x14 /opt/RidgeRun/arm-eabi-uclibc/lib/gcc/arm-linux-uclibcgnueabi/4.1.1/../../../../arm-linux-uclibcgnueabi/lib/libc.a(puts.o)
 .ARM.attributes
                0x00001d28       0x14 /opt/RidgeRun/arm-eabi-uclibc/lib/gcc/arm-linux-uclibcgnueabi/4.1.1/../../../../arm-linux-uclibcgnueabi/lib/libc.a(remove.o)
 .ARM.attributes
                0x00001d3c       0x14 /opt/RidgeRun/arm-eabi-uclibc/lib/gcc/arm-linux-uclibcgnueabi/4.1.1/../../../../arm-linux-uclibcgnueabi/lib/libc.a(rewind.o)
 .ARM.attributes
                0x00001d50       0x14 /opt/RidgeRun/arm-eabi-uclibc/lib/gcc/arm-linux-uclibcgnueabi/4.1.1/../../../../arm-linux-uclibcgnueabi/lib/libc.a(printf.o)
 .ARM.attributes
                0x00001d64       0x14 /opt/RidgeRun/arm-eabi-uclibc/lib/gcc/arm-linux-uclibcgnueabi/4.1.1/../../../../arm-linux-uclibcgnueabi/lib/libc.a(vsprintf.o)
 .ARM.attributes
                0x00001d78       0x14 /opt/RidgeRun/arm-eabi-uclibc/lib/gcc/arm-linux-uclibcgnueabi/4.1.1/../../../../arm-linux-uclibcgnueabi/lib/libc.a(fprintf.o)
 .ARM.attributes
                0x00001d8c       0x14 /opt/RidgeRun/arm-eabi-uclibc/lib/gcc/arm-linux-uclibcgnueabi/4.1.1/../../../../arm-linux-uclibcgnueabi/lib/libc.a(snprintf.o)
 .ARM.attributes
                0x00001da0       0x14 /opt/RidgeRun/arm-eabi-uclibc/lib/gcc/arm-linux-uclibcgnueabi/4.1.1/../../../../arm-linux-uclibcgnueabi/lib/libc.a(asprintf.o)
 .ARM.attributes
                0x00001db4       0x14 /opt/RidgeRun/arm-eabi-uclibc/lib/gcc/arm-linux-uclibcgnueabi/4.1.1/../../../../arm-linux-uclibcgnueabi/lib/libc.a(sprintf.o)
 .ARM.attributes
                0x00001dc8       0x14 /opt/RidgeRun/arm-eabi-uclibc/lib/gcc/arm-linux-uclibcgnueabi/4.1.1/../../../../arm-linux-uclibcgnueabi/lib/libc.a(vasprintf.o)
 .ARM.attributes
                0x00001ddc       0x14 /opt/RidgeRun/arm-eabi-uclibc/lib/gcc/arm-linux-uclibcgnueabi/4.1.1/../../../../arm-linux-uclibcgnueabi/lib/libc.a(vsnprintf.o)
 .ARM.attributes
                0x00001df0       0x14 /opt/RidgeRun/arm-eabi-uclibc/lib/gcc/arm-linux-uclibcgnueabi/4.1.1/../../../../arm-linux-uclibcgnueabi/lib/libc.a(fseeko64.o)
 .ARM.attributes
                0x00001e04       0x14 /opt/RidgeRun/arm-eabi-uclibc/lib/gcc/arm-linux-uclibcgnueabi/4.1.1/../../../../arm-linux-uclibcgnueabi/lib/libc.a(ftello64.o)
 .ARM.attributes
                0x00001e18       0x14 /opt/RidgeRun/arm-eabi-uclibc/lib/gcc/arm-linux-uclibcgnueabi/4.1.1/../../../../arm-linux-uclibcgnueabi/lib/libc.a(_adjust_pos.o)
 .ARM.attributes
                0x00001e2c       0x14 /opt/RidgeRun/arm-eabi-uclibc/lib/gcc/arm-linux-uclibcgnueabi/4.1.1/../../../../arm-linux-uclibcgnueabi/lib/libc.a(_fopen.o)
 .ARM.attributes
                0x00001e40       0x14 /opt/RidgeRun/arm-eabi-uclibc/lib/gcc/arm-linux-uclibcgnueabi/4.1.1/../../../../arm-linux-uclibcgnueabi/lib/libc.a(_stdio.o)
 .ARM.attributes
                0x00001e54       0x14 /opt/RidgeRun/arm-eabi-uclibc/lib/gcc/arm-linux-uclibcgnueabi/4.1.1/../../../../arm-linux-uclibcgnueabi/lib/libc.a(_wcommit.o)
 .ARM.attributes
                0x00001e68       0x14 /opt/RidgeRun/arm-eabi-uclibc/lib/gcc/arm-linux-uclibcgnueabi/4.1.1/../../../../arm-linux-uclibcgnueabi/lib/libc.a(_cs_funcs.o)
 .ARM.attributes
                0x00001e7c       0x14 /opt/RidgeRun/arm-eabi-uclibc/lib/gcc/arm-linux-uclibcgnueabi/4.1.1/../../../../arm-linux-uclibcgnueabi/lib/libc.a(open_memstream.o)
 .ARM.attributes
                0x00001e90       0x14 /opt/RidgeRun/arm-eabi-uclibc/lib/gcc/arm-linux-uclibcgnueabi/4.1.1/../../../../arm-linux-uclibcgnueabi/lib/libc.a(vfprintf.o)
 .ARM.attributes
                0x00001ea4       0x14 /opt/RidgeRun/arm-eabi-uclibc/lib/gcc/arm-linux-uclibcgnueabi/4.1.1/../../../../arm-linux-uclibcgnueabi/lib/libc.a(_ppfs_init.o)
 .ARM.attributes
                0x00001eb8       0x14 /opt/RidgeRun/arm-eabi-uclibc/lib/gcc/arm-linux-uclibcgnueabi/4.1.1/../../../../arm-linux-uclibcgnueabi/lib/libc.a(_ppfs_prepargs.o)
 .ARM.attributes
                0x00001ecc       0x14 /opt/RidgeRun/arm-eabi-uclibc/lib/gcc/arm-linux-uclibcgnueabi/4.1.1/../../../../arm-linux-uclibcgnueabi/lib/libc.a(_ppfs_setargs.o)
 .ARM.attributes
                0x00001ee0       0x14 /opt/RidgeRun/arm-eabi-uclibc/lib/gcc/arm-linux-uclibcgnueabi/4.1.1/../../../../arm-linux-uclibcgnueabi/lib/libc.a(_ppfs_parsespec.o)
 .ARM.attributes
                0x00001ef4       0x14 /opt/RidgeRun/arm-eabi-uclibc/lib/gcc/arm-linux-uclibcgnueabi/4.1.1/../../../../arm-linux-uclibcgnueabi/lib/libc.a(sscanf.o)
 .ARM.attributes
                0x00001f08       0x14 /opt/RidgeRun/arm-eabi-uclibc/lib/gcc/arm-linux-uclibcgnueabi/4.1.1/../../../../arm-linux-uclibcgnueabi/lib/libc.a(vsscanf.o)
 .ARM.attributes
                0x00001f1c       0x14 /opt/RidgeRun/arm-eabi-uclibc/lib/gcc/arm-linux-uclibcgnueabi/4.1.1/../../../../arm-linux-uclibcgnueabi/lib/libc.a(ferror.o)
 .ARM.attributes
                0x00001f30       0x14 /opt/RidgeRun/arm-eabi-uclibc/lib/gcc/arm-linux-uclibcgnueabi/4.1.1/../../../../arm-linux-uclibcgnueabi/lib/libc.a(fflush.o)
 .ARM.attributes
                0x00001f44       0x14 /opt/RidgeRun/arm-eabi-uclibc/lib/gcc/arm-linux-uclibcgnueabi/4.1.1/../../../../arm-linux-uclibcgnueabi/lib/libc.a(fgetc.o)
 .ARM.attributes
                0x00001f58       0x14 /opt/RidgeRun/arm-eabi-uclibc/lib/gcc/arm-linux-uclibcgnueabi/4.1.1/../../../../arm-linux-uclibcgnueabi/lib/libc.a(fgets.o)
 .ARM.attributes
                0x00001f6c       0x14 /opt/RidgeRun/arm-eabi-uclibc/lib/gcc/arm-linux-uclibcgnueabi/4.1.1/../../../../arm-linux-uclibcgnueabi/lib/libc.a(fputc.o)
 .ARM.attributes
                0x00001f80       0x14 /opt/RidgeRun/arm-eabi-uclibc/lib/gcc/arm-linux-uclibcgnueabi/4.1.1/../../../../arm-linux-uclibcgnueabi/lib/libc.a(fread.o)
 .ARM.attributes
                0x00001f94       0x14 /opt/RidgeRun/arm-eabi-uclibc/lib/gcc/arm-linux-uclibcgnueabi/4.1.1/../../../../arm-linux-uclibcgnueabi/lib/libc.a(fwrite.o)
 .ARM.attributes
                0x00001fa8       0x14 /opt/RidgeRun/arm-eabi-uclibc/lib/gcc/arm-linux-uclibcgnueabi/4.1.1/../../../../arm-linux-uclibcgnueabi/lib/libc.a(putchar.o)
 .ARM.attributes
                0x00001fbc       0x14 /opt/RidgeRun/arm-eabi-uclibc/lib/gcc/arm-linux-uclibcgnueabi/4.1.1/../../../../arm-linux-uclibcgnueabi/lib/libc.a(fflush_unlocked.o)
 .ARM.attributes
                0x00001fd0       0x14 /opt/RidgeRun/arm-eabi-uclibc/lib/gcc/arm-linux-uclibcgnueabi/4.1.1/../../../../arm-linux-uclibcgnueabi/lib/libc.a(fgetc_unlocked.o)
 .ARM.attributes
                0x00001fe4       0x14 /opt/RidgeRun/arm-eabi-uclibc/lib/gcc/arm-linux-uclibcgnueabi/4.1.1/../../../../arm-linux-uclibcgnueabi/lib/libc.a(fgets_unlocked.o)
 .ARM.attributes
                0x00001ff8       0x14 /opt/RidgeRun/arm-eabi-uclibc/lib/gcc/arm-linux-uclibcgnueabi/4.1.1/../../../../arm-linux-uclibcgnueabi/lib/libc.a(fputc_unlocked.o)
 .ARM.attributes
                0x0000200c       0x14 /opt/RidgeRun/arm-eabi-uclibc/lib/gcc/arm-linux-uclibcgnueabi/4.1.1/../../../../arm-linux-uclibcgnueabi/lib/libc.a(fputs_unlocked.o)
 .ARM.attributes
                0x00002020       0x14 /opt/RidgeRun/arm-eabi-uclibc/lib/gcc/arm-linux-uclibcgnueabi/4.1.1/../../../../arm-linux-uclibcgnueabi/lib/libc.a(fread_unlocked.o)
 .ARM.attributes
                0x00002034       0x14 /opt/RidgeRun/arm-eabi-uclibc/lib/gcc/arm-linux-uclibcgnueabi/4.1.1/../../../../arm-linux-uclibcgnueabi/lib/libc.a(fwrite_unlocked.o)
 .ARM.attributes
                0x00002048       0x14 /opt/RidgeRun/arm-eabi-uclibc/lib/gcc/arm-linux-uclibcgnueabi/4.1.1/../../../../arm-linux-uclibcgnueabi/lib/libc.a(memcmp.o)
 .ARM.attributes
                0x0000205c       0x14 /opt/RidgeRun/arm-eabi-uclibc/lib/gcc/arm-linux-uclibcgnueabi/4.1.1/../../../../arm-linux-uclibcgnueabi/lib/libc.a(memcpy.o)
 .ARM.attributes
                0x00002070       0x14 /opt/RidgeRun/arm-eabi-uclibc/lib/gcc/arm-linux-uclibcgnueabi/4.1.1/../../../../arm-linux-uclibcgnueabi/lib/libc.a(memset.o)
 .ARM.attributes
                0x00002084       0x14 /opt/RidgeRun/arm-eabi-uclibc/lib/gcc/arm-linux-uclibcgnueabi/4.1.1/../../../../arm-linux-uclibcgnueabi/lib/libc.a(strcmp.o)
 .ARM.attributes
                0x00002098       0x14 /opt/RidgeRun/arm-eabi-uclibc/lib/gcc/arm-linux-uclibcgnueabi/4.1.1/../../../../arm-linux-uclibcgnueabi/lib/libc.a(strlen.o)
 .ARM.attributes
                0x000020ac       0x14 /opt/RidgeRun/arm-eabi-uclibc/lib/gcc/arm-linux-uclibcgnueabi/4.1.1/../../../../arm-linux-uclibcgnueabi/lib/libc.a(strncmp.o)
 .ARM.attributes
                0x000020c0       0x14 /opt/RidgeRun/arm-eabi-uclibc/lib/gcc/arm-linux-uclibcgnueabi/4.1.1/../../../../arm-linux-uclibcgnueabi/lib/libc.a(strcat.o)
 .ARM.attributes
                0x000020d4       0x14 /opt/RidgeRun/arm-eabi-uclibc/lib/gcc/arm-linux-uclibcgnueabi/4.1.1/../../../../arm-linux-uclibcgnueabi/lib/libc.a(strcpy.o)
 .ARM.attributes
                0x000020e8       0x14 /opt/RidgeRun/arm-eabi-uclibc/lib/gcc/arm-linux-uclibcgnueabi/4.1.1/../../../../arm-linux-uclibcgnueabi/lib/libc.a(strncpy.o)
 .ARM.attributes
                0x000020fc       0x14 /opt/RidgeRun/arm-eabi-uclibc/lib/gcc/arm-linux-uclibcgnueabi/4.1.1/../../../../arm-linux-uclibcgnueabi/lib/libc.a(strnlen.o)
 .ARM.attributes
                0x00002110       0x14 /opt/RidgeRun/arm-eabi-uclibc/lib/gcc/arm-linux-uclibcgnueabi/4.1.1/../../../../arm-linux-uclibcgnueabi/lib/libc.a(strrchr.o)
 .ARM.attributes
                0x00002124       0x14 /opt/RidgeRun/arm-eabi-uclibc/lib/gcc/arm-linux-uclibcgnueabi/4.1.1/../../../../arm-linux-uclibcgnueabi/lib/libc.a(strstr.o)
 .ARM.attributes
                0x00002138       0x14 /opt/RidgeRun/arm-eabi-uclibc/lib/gcc/arm-linux-uclibcgnueabi/4.1.1/../../../../arm-linux-uclibcgnueabi/lib/libc.a(__glibc_strerror_r.o)
 .ARM.attributes
                0x0000214c       0x14 /opt/RidgeRun/arm-eabi-uclibc/lib/gcc/arm-linux-uclibcgnueabi/4.1.1/../../../../arm-linux-uclibcgnueabi/lib/libc.a(__xpg_strerror_r.o)
 .ARM.attributes
                0x00002160       0x10 /opt/RidgeRun/arm-eabi-uclibc/lib/gcc/arm-linux-uclibcgnueabi/4.1.1/../../../../arm-linux-uclibcgnueabi/lib/libc.a(_string_syserrmsgs.o)
 .ARM.attributes
                0x00002170       0x14 /opt/RidgeRun/arm-eabi-uclibc/lib/gcc/arm-linux-uclibcgnueabi/4.1.1/../../../../arm-linux-uclibcgnueabi/lib/libc.a(strcasecmp.o)
 .ARM.attributes
                0x00002184       0x14 /opt/RidgeRun/arm-eabi-uclibc/lib/gcc/arm-linux-uclibcgnueabi/4.1.1/../../../../arm-linux-uclibcgnueabi/lib/libc.a(strdup.o)
 .ARM.attributes
                0x00002198       0x14 /opt/RidgeRun/arm-eabi-uclibc/lib/gcc/arm-linux-uclibcgnueabi/4.1.1/../../../../arm-linux-uclibcgnueabi/lib/libc.a(strerror.o)
 .ARM.attributes
                0x000021ac       0x14 /opt/RidgeRun/arm-eabi-uclibc/lib/gcc/arm-linux-uclibcgnueabi/4.1.1/../../../../arm-linux-uclibcgnueabi/lib/libc.a(strncasecmp.o)
 .ARM.attributes
                0x000021c0       0x14 /opt/RidgeRun/arm-eabi-uclibc/lib/gcc/arm-linux-uclibcgnueabi/4.1.1/../../../../arm-linux-uclibcgnueabi/lib/libc.a(isatty.o)
 .ARM.attributes
                0x000021d4       0x14 /opt/RidgeRun/arm-eabi-uclibc/lib/gcc/arm-linux-uclibcgnueabi/4.1.1/../../../../arm-linux-uclibcgnueabi/lib/libc.a(tcgetattr.o)
 .ARM.attributes
                0x000021e8       0x14 /opt/RidgeRun/arm-eabi-uclibc/lib/gcc/arm-linux-uclibcgnueabi/4.1.1/../../../../arm-linux-uclibcgnueabi/lib/libc.a(signal.o)
 .ARM.attributes
                0x000021fc       0x14 /opt/RidgeRun/arm-eabi-uclibc/lib/gcc/arm-linux-uclibcgnueabi/4.1.1/../../../../arm-linux-uclibcgnueabi/lib/libc.a(sigsetops.o)
 .ARM.attributes
                0x00002210       0x14 /opt/RidgeRun/arm-eabi-uclibc/lib/gcc/arm-linux-uclibcgnueabi/4.1.1/../../../../arm-linux-uclibcgnueabi/lib/libc.a(malloc.o)
 .ARM.attributes
                0x00002224       0x14 /opt/RidgeRun/arm-eabi-uclibc/lib/gcc/arm-linux-uclibcgnueabi/4.1.1/../../../../arm-linux-uclibcgnueabi/lib/libc.a(calloc.o)
 .ARM.attributes
                0x00002238       0x14 /opt/RidgeRun/arm-eabi-uclibc/lib/gcc/arm-linux-uclibcgnueabi/4.1.1/../../../../arm-linux-uclibcgnueabi/lib/libc.a(free.o)
 .ARM.attributes
                0x0000224c       0x14 /opt/RidgeRun/arm-eabi-uclibc/lib/gcc/arm-linux-uclibcgnueabi/4.1.1/../../../../arm-linux-uclibcgnueabi/lib/libc.a(realloc.o)
 .ARM.attributes
                0x00002260       0x14 /opt/RidgeRun/arm-eabi-uclibc/lib/gcc/arm-linux-uclibcgnueabi/4.1.1/../../../../arm-linux-uclibcgnueabi/lib/libc.a(heap_alloc.o)
 .ARM.attributes
                0x00002274       0x14 /opt/RidgeRun/arm-eabi-uclibc/lib/gcc/arm-linux-uclibcgnueabi/4.1.1/../../../../arm-linux-uclibcgnueabi/lib/libc.a(heap_alloc_at.o)
 .ARM.attributes
                0x00002288       0x14 /opt/RidgeRun/arm-eabi-uclibc/lib/gcc/arm-linux-uclibcgnueabi/4.1.1/../../../../arm-linux-uclibcgnueabi/lib/libc.a(heap_free.o)
 .ARM.attributes
                0x0000229c       0x14 /opt/RidgeRun/arm-eabi-uclibc/lib/gcc/arm-linux-uclibcgnueabi/4.1.1/../../../../arm-linux-uclibcgnueabi/lib/libc.a(abort.o)
 .ARM.attributes
                0x000022b0       0x14 /opt/RidgeRun/arm-eabi-uclibc/lib/gcc/arm-linux-uclibcgnueabi/4.1.1/../../../../arm-linux-uclibcgnueabi/lib/libc.a(system.o)
 .ARM.attributes
                0x000022c4       0x14 /opt/RidgeRun/arm-eabi-uclibc/lib/gcc/arm-linux-uclibcgnueabi/4.1.1/../../../../arm-linux-uclibcgnueabi/lib/libc.a(atol.o)
 .ARM.attributes
                0x000022d8       0x14 /opt/RidgeRun/arm-eabi-uclibc/lib/gcc/arm-linux-uclibcgnueabi/4.1.1/../../../../arm-linux-uclibcgnueabi/lib/libc.a(strtol.o)
 .ARM.attributes
                0x000022ec       0x14 /opt/RidgeRun/arm-eabi-uclibc/lib/gcc/arm-linux-uclibcgnueabi/4.1.1/../../../../arm-linux-uclibcgnueabi/lib/libc.a(_stdlib_strto_l.o)
 .ARM.attributes
                0x00002300       0x14 /opt/RidgeRun/arm-eabi-uclibc/lib/gcc/arm-linux-uclibcgnueabi/4.1.1/../../../../arm-linux-uclibcgnueabi/lib/libc.a(qsort.o)
 .ARM.attributes
                0x00002314       0x14 /opt/RidgeRun/arm-eabi-uclibc/lib/gcc/arm-linux-uclibcgnueabi/4.1.1/../../../../arm-linux-uclibcgnueabi/lib/libc.a(exit.o)
 .ARM.attributes
                0x00002328       0x14 /opt/RidgeRun/arm-eabi-uclibc/lib/gcc/arm-linux-uclibcgnueabi/4.1.1/../../../../arm-linux-uclibcgnueabi/lib/libc.a(execl.o)
 .ARM.attributes
                0x0000233c       0x14 /opt/RidgeRun/arm-eabi-uclibc/lib/gcc/arm-linux-uclibcgnueabi/4.1.1/../../../../arm-linux-uclibcgnueabi/lib/libc.a(usleep.o)
 .ARM.attributes
                0x00002350       0x14 /opt/RidgeRun/arm-eabi-uclibc/lib/gcc/arm-linux-uclibcgnueabi/4.1.1/../../../../arm-linux-uclibcgnueabi/lib/libc.a(__uClibc_main.o)
 .ARM.attributes
                0x00002364       0x14 /opt/RidgeRun/arm-eabi-uclibc/lib/gcc/arm-linux-uclibcgnueabi/4.1.1/../../../../arm-linux-uclibcgnueabi/lib/libc.a(weaks.o)
 .ARM.attributes
                0x00002378       0x14 /opt/RidgeRun/arm-eabi-uclibc/lib/gcc/arm-linux-uclibcgnueabi/4.1.1/../../../../arm-linux-uclibcgnueabi/lib/libc.a(libc-cancellation.o)
 .ARM.attributes
                0x0000238c       0x14 /opt/RidgeRun/arm-eabi-uclibc/lib/gcc/arm-linux-uclibcgnueabi/4.1.1/../../../../arm-linux-uclibcgnueabi/lib/libc.a(libc-tls.o)
 .ARM.attributes
                0x000023a0       0x10 /opt/RidgeRun/arm-eabi-uclibc/lib/gcc/arm-linux-uclibcgnueabi/4.1.1/../../../../arm-linux-uclibcgnueabi/lib/libc.a(libc_multiple_threads.o)
 .ARM.attributes
                0x000023b0       0x14 /opt/RidgeRun/arm-eabi-uclibc/lib/gcc/arm-linux-uclibcgnueabi/4.1.1/../../../../arm-linux-uclibcgnueabi/lib/libc.a(sigaction.o)
 .ARM.attributes
                0x000023c4       0x14 /opt/RidgeRun/arm-eabi-uclibc/lib/gcc/arm-linux-uclibcgnueabi/4.1.1/../../../../arm-linux-uclibcgnueabi/lib/libc.a(__longjmp.o)
 .ARM.attributes
                0x000023d8       0x14 /opt/RidgeRun/arm-eabi-uclibc/lib/gcc/arm-linux-uclibcgnueabi/4.1.1/../../../../arm-linux-uclibcgnueabi/lib/libc.a(setjmp.o)
 .ARM.attributes
                0x000023ec       0x14 /opt/RidgeRun/arm-eabi-uclibc/lib/gcc/arm-linux-uclibcgnueabi/4.1.1/../../../../arm-linux-uclibcgnueabi/lib/libc.a(sigrestorer.o)
 .ARM.attributes
                0x00002400       0x14 /opt/RidgeRun/arm-eabi-uclibc/lib/gcc/arm-linux-uclibcgnueabi/4.1.1/../../../../arm-linux-uclibcgnueabi/lib/libc.a(mmap64.o)
 .ARM.attributes
                0x00002414       0x14 /opt/RidgeRun/arm-eabi-uclibc/lib/gcc/arm-linux-uclibcgnueabi/4.1.1/../../../../arm-linux-uclibcgnueabi/lib/libc.a(__syscall_rt_sigaction.o)
 .ARM.attributes
                0x00002428       0x14 /opt/RidgeRun/arm-eabi-uclibc/lib/gcc/arm-linux-uclibcgnueabi/4.1.1/../../../../arm-linux-uclibcgnueabi/lib/libc.a(_exit.o)
 .ARM.attributes
                0x0000243c       0x14 /opt/RidgeRun/arm-eabi-uclibc/lib/gcc/arm-linux-uclibcgnueabi/4.1.1/../../../../arm-linux-uclibcgnueabi/lib/libc.a(execve.o)
 .ARM.attributes
                0x00002450       0x14 /opt/RidgeRun/arm-eabi-uclibc/lib/gcc/arm-linux-uclibcgnueabi/4.1.1/../../../../arm-linux-uclibcgnueabi/lib/libc.a(fstat.o)
 .ARM.attributes
                0x00002464       0x14 /opt/RidgeRun/arm-eabi-uclibc/lib/gcc/arm-linux-uclibcgnueabi/4.1.1/../../../../arm-linux-uclibcgnueabi/lib/libc.a(getegid.o)
 .ARM.attributes
                0x00002478       0x14 /opt/RidgeRun/arm-eabi-uclibc/lib/gcc/arm-linux-uclibcgnueabi/4.1.1/../../../../arm-linux-uclibcgnueabi/lib/libc.a(geteuid.o)
 .ARM.attributes
                0x0000248c       0x14 /opt/RidgeRun/arm-eabi-uclibc/lib/gcc/arm-linux-uclibcgnueabi/4.1.1/../../../../arm-linux-uclibcgnueabi/lib/libc.a(getgid.o)
 .ARM.attributes
                0x000024a0       0x14 /opt/RidgeRun/arm-eabi-uclibc/lib/gcc/arm-linux-uclibcgnueabi/4.1.1/../../../../arm-linux-uclibcgnueabi/lib/libc.a(getuid.o)
 .ARM.attributes
                0x000024b4       0x14 /opt/RidgeRun/arm-eabi-uclibc/lib/gcc/arm-linux-uclibcgnueabi/4.1.1/../../../../arm-linux-uclibcgnueabi/lib/libc.a(llseek.o)
 .ARM.attributes
                0x000024c8       0x14 /opt/RidgeRun/arm-eabi-uclibc/lib/gcc/arm-linux-uclibcgnueabi/4.1.1/../../../../arm-linux-uclibcgnueabi/lib/libc.a(nanosleep.o)
 .ARM.attributes
                0x000024dc       0x14 /opt/RidgeRun/arm-eabi-uclibc/lib/gcc/arm-linux-uclibcgnueabi/4.1.1/../../../../arm-linux-uclibcgnueabi/lib/libc.a(rmdir.o)
 .ARM.attributes
                0x000024f0       0x14 /opt/RidgeRun/arm-eabi-uclibc/lib/gcc/arm-linux-uclibcgnueabi/4.1.1/../../../../arm-linux-uclibcgnueabi/lib/libc.a(sbrk.o)
 .ARM.attributes
                0x00002504       0x14 /opt/RidgeRun/arm-eabi-uclibc/lib/gcc/arm-linux-uclibcgnueabi/4.1.1/../../../../arm-linux-uclibcgnueabi/lib/libc.a(unlink.o)
 .ARM.attributes
                0x00002518       0x14 /opt/RidgeRun/arm-eabi-uclibc/lib/gcc/arm-linux-uclibcgnueabi/4.1.1/../../../../arm-linux-uclibcgnueabi/lib/libc.a(waitpid.o)
 .ARM.attributes
                0x0000252c       0x10 /opt/RidgeRun/arm-eabi-uclibc/lib/gcc/arm-linux-uclibcgnueabi/4.1.1/../../../../arm-linux-uclibcgnueabi/lib/libc.a(__C_ctype_b.o)
 .ARM.attributes
                0x0000253c       0x14 /opt/RidgeRun/arm-eabi-uclibc/lib/gcc/arm-linux-uclibcgnueabi/4.1.1/../../../../arm-linux-uclibcgnueabi/lib/libc.a(readdir.o)
 .ARM.attributes
                0x00002550       0x14 /opt/RidgeRun/arm-eabi-uclibc/lib/gcc/arm-linux-uclibcgnueabi/4.1.1/../../../../arm-linux-uclibcgnueabi/lib/libc.a(wcrtomb.o)
 .ARM.attributes
                0x00002564       0x14 /opt/RidgeRun/arm-eabi-uclibc/lib/gcc/arm-linux-uclibcgnueabi/4.1.1/../../../../arm-linux-uclibcgnueabi/lib/libc.a(wcsrtombs.o)
 .ARM.attributes
                0x00002578       0x14 /opt/RidgeRun/arm-eabi-uclibc/lib/gcc/arm-linux-uclibcgnueabi/4.1.1/../../../../arm-linux-uclibcgnueabi/lib/libc.a(wcsnrtombs.o)
 .ARM.attributes
                0x0000258c       0x14 /opt/RidgeRun/arm-eabi-uclibc/lib/gcc/arm-linux-uclibcgnueabi/4.1.1/../../../../arm-linux-uclibcgnueabi/lib/libc.a(_READ.o)
 .ARM.attributes
                0x000025a0       0x14 /opt/RidgeRun/arm-eabi-uclibc/lib/gcc/arm-linux-uclibcgnueabi/4.1.1/../../../../arm-linux-uclibcgnueabi/lib/libc.a(_WRITE.o)
 .ARM.attributes
                0x000025b4       0x14 /opt/RidgeRun/arm-eabi-uclibc/lib/gcc/arm-linux-uclibcgnueabi/4.1.1/../../../../arm-linux-uclibcgnueabi/lib/libc.a(_fwrite.o)
 .ARM.attributes
                0x000025c8       0x14 /opt/RidgeRun/arm-eabi-uclibc/lib/gcc/arm-linux-uclibcgnueabi/4.1.1/../../../../arm-linux-uclibcgnueabi/lib/libc.a(_rfill.o)
 .ARM.attributes
                0x000025dc       0x14 /opt/RidgeRun/arm-eabi-uclibc/lib/gcc/arm-linux-uclibcgnueabi/4.1.1/../../../../arm-linux-uclibcgnueabi/lib/libc.a(_trans2r.o)
 .ARM.attributes
                0x000025f0       0x14 /opt/RidgeRun/arm-eabi-uclibc/lib/gcc/arm-linux-uclibcgnueabi/4.1.1/../../../../arm-linux-uclibcgnueabi/lib/libc.a(_trans2w.o)
 .ARM.attributes
                0x00002604       0x14 /opt/RidgeRun/arm-eabi-uclibc/lib/gcc/arm-linux-uclibcgnueabi/4.1.1/../../../../arm-linux-uclibcgnueabi/lib/libc.a(_load_inttype.o)
 .ARM.attributes
                0x00002618       0x14 /opt/RidgeRun/arm-eabi-uclibc/lib/gcc/arm-linux-uclibcgnueabi/4.1.1/../../../../arm-linux-uclibcgnueabi/lib/libc.a(_store_inttype.o)
 .ARM.attributes
                0x0000262c       0x14 /opt/RidgeRun/arm-eabi-uclibc/lib/gcc/arm-linux-uclibcgnueabi/4.1.1/../../../../arm-linux-uclibcgnueabi/lib/libc.a(_uintmaxtostr.o)
 .ARM.attributes
                0x00002640       0x14 /opt/RidgeRun/arm-eabi-uclibc/lib/gcc/arm-linux-uclibcgnueabi/4.1.1/../../../../arm-linux-uclibcgnueabi/lib/libc.a(_fpmaxtostr.o)
 .ARM.attributes
                0x00002654       0x14 /opt/RidgeRun/arm-eabi-uclibc/lib/gcc/arm-linux-uclibcgnueabi/4.1.1/../../../../arm-linux-uclibcgnueabi/lib/libc.a(fopencookie.o)
 .ARM.attributes
                0x00002668       0x14 /opt/RidgeRun/arm-eabi-uclibc/lib/gcc/arm-linux-uclibcgnueabi/4.1.1/../../../../arm-linux-uclibcgnueabi/lib/libc.a(vfscanf.o)
 .ARM.attributes
                0x0000267c       0x14 /opt/RidgeRun/arm-eabi-uclibc/lib/gcc/arm-linux-uclibcgnueabi/4.1.1/../../../../arm-linux-uclibcgnueabi/lib/libc.a(__scan_cookie.o)
 .ARM.attributes
                0x00002690       0x14 /opt/RidgeRun/arm-eabi-uclibc/lib/gcc/arm-linux-uclibcgnueabi/4.1.1/../../../../arm-linux-uclibcgnueabi/lib/libc.a(__psfs_parse_spec.o)
 .ARM.attributes
                0x000026a4       0x14 /opt/RidgeRun/arm-eabi-uclibc/lib/gcc/arm-linux-uclibcgnueabi/4.1.1/../../../../arm-linux-uclibcgnueabi/lib/libc.a(__psfs_do_numeric.o)
 .ARM.attributes
                0x000026b8       0x14 /opt/RidgeRun/arm-eabi-uclibc/lib/gcc/arm-linux-uclibcgnueabi/4.1.1/../../../../arm-linux-uclibcgnueabi/lib/libc.a(_memcpy.o)
 .ARM.attributes
                0x000026cc       0x14 /opt/RidgeRun/arm-eabi-uclibc/lib/gcc/arm-linux-uclibcgnueabi/4.1.1/../../../../arm-linux-uclibcgnueabi/lib/libc.a(memchr.o)
 .ARM.attributes
                0x000026e0       0x14 /opt/RidgeRun/arm-eabi-uclibc/lib/gcc/arm-linux-uclibcgnueabi/4.1.1/../../../../arm-linux-uclibcgnueabi/lib/libc.a(mempcpy.o)
 .ARM.attributes
                0x000026f4       0x14 /opt/RidgeRun/arm-eabi-uclibc/lib/gcc/arm-linux-uclibcgnueabi/4.1.1/../../../../arm-linux-uclibcgnueabi/lib/libc.a(memrchr.o)
 .ARM.attributes
                0x00002708       0x14 /opt/RidgeRun/arm-eabi-uclibc/lib/gcc/arm-linux-uclibcgnueabi/4.1.1/../../../../arm-linux-uclibcgnueabi/lib/libc.a(strchr.o)
 .ARM.attributes
                0x0000271c       0x14 /opt/RidgeRun/arm-eabi-uclibc/lib/gcc/arm-linux-uclibcgnueabi/4.1.1/../../../../arm-linux-uclibcgnueabi/lib/libc.a(sigjmp.o)
 .ARM.attributes
                0x00002730       0x14 /opt/RidgeRun/arm-eabi-uclibc/lib/gcc/arm-linux-uclibcgnueabi/4.1.1/../../../../arm-linux-uclibcgnueabi/lib/libc.a(_stdlib_strto_ll.o)
 .ARM.attributes
                0x00002744       0x14 /opt/RidgeRun/arm-eabi-uclibc/lib/gcc/arm-linux-uclibcgnueabi/4.1.1/../../../../arm-linux-uclibcgnueabi/lib/libc.a(__strtofpmax.o)
 .ARM.attributes
                0x00002758       0x14 /opt/RidgeRun/arm-eabi-uclibc/lib/gcc/arm-linux-uclibcgnueabi/4.1.1/../../../../arm-linux-uclibcgnueabi/lib/libc.a(dl-support.o)
 .ARM.attributes
                0x0000276c       0x14 /opt/RidgeRun/arm-eabi-uclibc/lib/gcc/arm-linux-uclibcgnueabi/4.1.1/../../../../arm-linux-uclibcgnueabi/lib/libc.a(brk.o)
 .ARM.attributes
                0x00002780       0x14 /opt/RidgeRun/arm-eabi-uclibc/lib/gcc/arm-linux-uclibcgnueabi/4.1.1/../../../../arm-linux-uclibcgnueabi/lib/libc.a(__syscall_error.o)
 .ARM.attributes
                0x00002794       0x14 /opt/RidgeRun/arm-eabi-uclibc/lib/gcc/arm-linux-uclibcgnueabi/4.1.1/../../../../arm-linux-uclibcgnueabi/lib/libc.a(getdents.o)
 .ARM.attributes
                0x000027a8       0x14 /opt/RidgeRun/arm-eabi-uclibc/lib/gcc/arm-linux-uclibcgnueabi/4.1.1/../../../../arm-linux-uclibcgnueabi/lib/libc.a(getdents64.o)
 .ARM.attributes
                0x000027bc       0x14 /opt/RidgeRun/arm-eabi-uclibc/lib/gcc/arm-linux-uclibcgnueabi/4.1.1/../../../../arm-linux-uclibcgnueabi/lib/libc.a(wait4.o)
 .ARM.attributes
                0x000027d0       0x14 /opt/RidgeRun/arm-eabi-uclibc/lib/gcc/arm-linux-uclibcgnueabi/4.1.1/../../../../arm-linux-uclibcgnueabi/lib/libc.a(mbrtowc.o)
 .ARM.attributes
                0x000027e4       0x14 /opt/RidgeRun/arm-eabi-uclibc/lib/gcc/arm-linux-uclibcgnueabi/4.1.1/../../../../arm-linux-uclibcgnueabi/lib/libc.a(mbsnrtowcs.o)
 .ARM.attributes
                0x000027f8       0x14 /opt/RidgeRun/arm-eabi-uclibc/lib/gcc/arm-linux-uclibcgnueabi/4.1.1/../../../../arm-linux-uclibcgnueabi/lib/libc.a(ungetc.o)
 .ARM.attributes
                0x0000280c       0x14 /opt/RidgeRun/arm-eabi-uclibc/lib/gcc/arm-linux-uclibcgnueabi/4.1.1/../../../../arm-linux-uclibcgnueabi/lib/libc.a(memmove.o)
 .ARM.attributes
                0x00002820       0x14 /opt/RidgeRun/arm-eabi-uclibc/lib/gcc/arm-linux-uclibcgnueabi/4.1.1/libgcc.a(_truncdfsf2.o)
 .ARM.attributes
                0x00002834       0x10 /opt/RidgeRun/arm-eabi-uclibc/lib/gcc/arm-linux-uclibcgnueabi/4.1.1/crtend.o
 .ARM.attributes
                0x00002844       0x14 /opt/RidgeRun/arm-eabi-uclibc/lib/gcc/arm-linux-uclibcgnueabi/4.1.1/../../../../arm-linux-uclibcgnueabi/lib/crtn.o

.debug_ranges   0x00000000      0x1a0
 .debug_ranges  0x00000000       0x98 /opt/RidgeRun/arm-eabi-uclibc/lib/gcc/arm-linux-uclibcgnueabi/4.1.1/libgcc.a(_divdi3.o)
 .debug_ranges  0x00000098       0x78 /opt/RidgeRun/arm-eabi-uclibc/lib/gcc/arm-linux-uclibcgnueabi/4.1.1/libgcc.a(_udivdi3.o)
 .debug_ranges  0x00000110       0x60 /opt/RidgeRun/arm-eabi-uclibc/lib/gcc/arm-linux-uclibcgnueabi/4.1.1/libgcc_eh.a(unwind-arm.o)
 .debug_ranges  0x00000170       0x30 /opt/RidgeRun/arm-eabi-uclibc/lib/gcc/arm-linux-uclibcgnueabi/4.1.1/libgcc_eh.a(pr-support.o)
